(dp1
S'cell_sectionlists'
p2
(dp3
S'basal'
p4
(lp5
S'zipA0'
p6
aS'GPe[0].dend[11]'
p7
aS'zipC4'
p8
aS'zipB1'
p9
aS'zipA4'
p10
aS'zipC0'
p11
aS'GPe[0].dend[22]'
p12
aS'zipC5'
p13
aS'zipC1'
p14
aS'zipC2'
p15
aS'zipC3'
p16
aS'GPe[0].dend[0]'
p17
aS'zipB2'
p18
aS'zipA1'
p19
aS'zipA3'
p20
aS'zipA2'
p21
aS'zipB0'
p22
asS'apical'
p23
(lp24
sS'axonal'
p25
(lp26
S'GPe[0].axon[0]'
p27
asS'myelinated'
p28
(lp29
sS'somatic'
p30
(lp31
S'GPe[0].soma[0]'
p32
assS'section_data'
p33
(lp34
(dp35
S'ions'
p36
(dp37
S'na'
p38
(dp39
S'ena'
p40
(lp41
F50
asS'dina_dv_'
p42
(lp43
F0
asS'nai'
p44
(lp45
F10
asS'nao'
p46
(lp47
F140
asS'ina'
p48
(lp49
F0
asS'ion_style'
p50
F8
ssS'k'
(dp51
S'ek'
p52
(lp53
F-90
asS'ki'
p54
(lp55
F54.399999999999999
asS'ko'
p56
(lp57
F2.5
asS'ik'
p58
(lp59
F0
asS'dik_dv_'
p60
(lp61
F0
asg50
F8
ssS'ca'
p62
(dp63
S'eca'
p64
(lp65
F132.45793416370091
asS'dica_dv_'
p66
(lp67
F0
asS'ica'
p68
(lp69
F0
asS'cai'
p70
(lp71
F5.0000000000000002e-05
asS'cao'
p72
(lp73
F2
asg50
F247
sssS'name'
p74
S'GPe[0].soma[0]'
p75
sS'cm'
p76
(lp77
F2.3999999999999999
asS'nseg'
p78
I1
sS'density_mechs'
p79
(dp80
S'pas'
p81
(dp82
S'i'
(lp83
F0
asS'e'
(lp84
F-60
asS'g'
(lp85
F6.802721088435374e-05
assS'Kv4s'
p86
(dp87
S'm'
(lp88
F0
asS'h'
(lp89
F0
asS'iKv4s'
p90
(lp91
F0
asS'gmax'
p92
(lp93
F0.0030000000000000001
assS'Kv4f'
p94
(dp95
S'iKv4f'
p96
(lp97
F0
asS'h'
(lp98
F0
asS'm'
(lp99
F0
asS'gmax'
p100
(lp101
F0.002
assS'HCN2'
p102
(dp103
S'ih'
p104
(lp105
F0
asS'iHCN'
p106
(lp107
F0
asS'm'
(lp108
F0
asS'gmax'
p109
(lp110
F0.00025000000000000001
assS'KCNQ'
p111
(dp112
S'iKCNQ'
p113
(lp114
F0
asS'm'
(lp115
F0
asS'gmax'
p116
(lp117
F0.00020000000000000001
assS'SK'
p118
(dp119
S'iSK'
p120
(lp121
F0
asS'm'
(lp122
F0
asS'gmax'
p123
(lp124
F0.0064000000000000003
assS'Calcium'
p125
(dp126
S'tau'
p127
(lp128
F1
asS'depth'
p129
(lp130
F1600000000000
asS'cai0'
p131
(lp132
F5.0000000000000002e-05
assS'NaP'
p133
(dp134
S'h'
(lp135
F0
asS's'
(lp136
F0
asS'm'
(lp137
F0
asS'iNa'
p138
(lp139
F0
asS'gmax'
p140
(lp141
F0.0001015
assS'Kv2'
p142
(dp143
S'm'
(lp144
F0
asS'h'
(lp145
F0
asS'iKv2'
p146
(lp147
F0
asS'gmax'
p148
(lp149
F0.0001
assS'Kv3'
p150
(dp151
S'h'
(lp152
F0
asS'm'
(lp153
F0
asS'iKv3'
p154
(lp155
F0
asS'gmax'
p156
(lp157
F0.001
assS'CaHVA'
p158
(dp159
S'iCaH'
p160
(lp161
F0
asS'm'
(lp162
F0
asS'gmax'
p163
(lp164
F3.0000000000000001e-05
assS'NaF'
p165
(dp166
S'h'
(lp167
F0
asS's'
(lp168
F0
asS'm'
(lp169
F0
asS'iNa'
p170
(lp171
F0
asS'gmax'
p172
(lp173
F0.035000000000000003
assS'HCN'
p174
(dp175
S'ih'
p176
(lp177
F0
asS'iHCN'
p178
(lp179
F0
asS'm'
(lp180
F0
asS'gmax'
p181
(lp182
F0.0001
asssS'regions'
p183
c__builtin__
set
p184
((ltRp185
sS'point_processes'
p186
(dp187
sS'Ra'
p188
F174
sS'morphology'
p189
(dp190
S'diam'
p191
(lp192
F1
asS'section_orientation'
p193
F0
sS'parent_idx'
p194
I-1
sS'pts3d'
p195
(lp196
(F-6.6999998092651367
F0
F0
F1
tp197
a(F-6.1999998092651367
F0
F0
F1
tp198
a(F-5.6999998092651367
F0
F0
F1
tp199
asS'L'
F1
sS'parent_loc'
p200
I-1
ssS'hoc_internal_name'
p201
S'__nrnsec_0x55f88fb53150'
p202
sS'species'
p203
g184
((ltRp204
sa(dp205
g36
(dp206
S'na'
p207
(dp208
S'ena'
p209
(lp210
F50
asS'dina_dv_'
p211
(lp212
F0
asS'nai'
p213
(lp214
F10
asS'nao'
p215
(lp216
F140
asS'ina'
p217
(lp218
F0
asg50
F8
ssS'k'
(dp219
S'ek'
p220
(lp221
F-90
asS'ki'
p222
(lp223
F54.399999999999999
asS'ko'
p224
(lp225
F2.5
asS'ik'
p226
(lp227
F0
asS'dik_dv_'
p228
(lp229
F0
asg50
F8
ssS'ca'
p230
(dp231
S'eca'
p232
(lp233
F132.45793416370091
asS'dica_dv_'
p234
(lp235
F0
asS'ica'
p236
(lp237
F0
asS'cai'
p238
(lp239
F5.0000000000000002e-05
asS'cao'
p240
(lp241
F2
asg50
F247
sssg74
S'GPe[0].dend[22]'
p242
sg76
(lp243
F2.3999999999999999
asg78
I1
sg79
(dp244
S'pas'
p245
(dp246
S'i'
(lp247
F0
asS'e'
(lp248
F-60
asS'g'
(lp249
F6.802721088435374e-05
assS'Kv4s'
p250
(dp251
S'm'
(lp252
F0
asS'h'
(lp253
F0
asS'iKv4s'
p254
(lp255
F0
asS'gmax'
p256
(lp257
F0.0060000000000000001
assS'Kv4f'
p258
(dp259
S'iKv4f'
p260
(lp261
F0
asS'h'
(lp262
F0
asS'm'
(lp263
F0
asS'gmax'
p264
(lp265
F0.0040000000000000001
assS'HCN2'
p266
(dp267
S'ih'
p268
(lp269
F0
asS'iHCN'
p270
(lp271
F0
asS'm'
(lp272
F0
asS'gmax'
p273
(lp274
F0.00025000000000000001
assS'KCNQ'
p275
(dp276
S'iKCNQ'
p277
(lp278
F0
asS'm'
(lp279
F0
asS'gmax'
p280
(lp281
F0.00020000000000000001
assS'SK'
p282
(dp283
S'iSK'
p284
(lp285
F0
asS'm'
(lp286
F0
asS'gmax'
p287
(lp288
F4.0000000000000003e-05
assS'Calcium'
p289
(dp290
S'tau'
p291
(lp292
F1
asS'depth'
p293
(lp294
F1600000000000
asS'cai0'
p295
(lp296
F5.0000000000000002e-05
assS'NaP'
p297
(dp298
S'h'
(lp299
F0
asS's'
(lp300
F0
asS'm'
(lp301
F0
asS'iNa'
p302
(lp303
F0
asS'gmax'
p304
(lp305
F0.0001015
assS'Kv2'
p306
(dp307
S'm'
(lp308
F0
asS'h'
(lp309
F0
asS'iKv2'
p310
(lp311
F0
asS'gmax'
p312
(lp313
F0.0001
assS'Kv3'
p314
(dp315
S'h'
(lp316
F0
asS'm'
(lp317
F0
asS'iKv3'
p318
(lp319
F0
asS'gmax'
p320
(lp321
F0.001
assS'CaHVA'
p322
(dp323
S'iCaH'
p324
(lp325
F0
asS'm'
(lp326
F0
asS'gmax'
p327
(lp328
F3.0000000000000001e-05
assS'NaF'
p329
(dp330
S'h'
(lp331
F0
asS's'
(lp332
F0
asS'm'
(lp333
F0
asS'iNa'
p334
(lp335
F0
asS'gmax'
p336
(lp337
F0.035000000000000003
assS'HCN'
p338
(dp339
S'ih'
p340
(lp341
F0
asS'iHCN'
p342
(lp343
F0
asS'm'
(lp344
F0
asS'gmax'
p345
(lp346
F0.0001
asssg183
g184
((ltRp347
sg186
(dp348
sg188
F174
sg189
(dp349
g191
(lp350
F1
asg193
F0
sg194
I0
sg195
(lp351
(F0
F0
F0
F1
tp352
a(F-0.0086359027773141861
F-0.11578992754220963
F0.075379796326160431
F1
tp353
a(F-0.13905934989452362
F-0.15926440060138702
F0.12077154219150543
F1
tp354
a(F-0.18189473450183868
F-0.3065335750579834
F0.12077154219150543
F1
tp355
a(F-0.27995401620864868
F-0.40338024497032166
F0.17737194895744324
F1
tp356
a(F-0.37345775961875916
F-0.47245106101036072
F0.22831885516643524
F1
tp357
a(F-0.46212732791900635
F-0.58412790298461914
F0.23098991811275482
F1
tp358
a(F-0.5803753137588501
F-0.66611158847808838
F0.24790121614933014
F1
tp359
asS'L'
F1
sg200
F0.5
ssg201
S'__nrnsec_0x55f88fb53a50'
p360
sg203
g184
((ltRp361
sa(dp362
g36
(dp363
S'na'
p364
(dp365
S'ena'
p366
(lp367
F50
asS'dina_dv_'
p368
(lp369
F0
asS'nai'
p370
(lp371
F10
asS'nao'
p372
(lp373
F140
asS'ina'
p374
(lp375
F0
asg50
F8
ssS'k'
(dp376
S'ek'
p377
(lp378
F-90
asS'ki'
p379
(lp380
F54.399999999999999
asS'ko'
p381
(lp382
F2.5
asS'ik'
p383
(lp384
F0
asS'dik_dv_'
p385
(lp386
F0
asg50
F8
ssS'ca'
p387
(dp388
S'eca'
p389
(lp390
F132.45793416370091
asS'dica_dv_'
p391
(lp392
F0
asS'ica'
p393
(lp394
F0
asS'cai'
p395
(lp396
F5.0000000000000002e-05
asS'cao'
p397
(lp398
F2
asg50
F247
sssg74
S'GPe[0].dend[11]'
p399
sg76
(lp400
F2.3999999999999999
asg78
I1
sg79
(dp401
S'pas'
p402
(dp403
S'i'
(lp404
F0
asS'e'
(lp405
F-60
asS'g'
(lp406
F6.802721088435374e-05
assS'Kv4s'
p407
(dp408
S'm'
(lp409
F0
asS'h'
(lp410
F0
asS'iKv4s'
p411
(lp412
F0
asS'gmax'
p413
(lp414
F0.0060000000000000001
assS'Kv4f'
p415
(dp416
S'iKv4f'
p417
(lp418
F0
asS'h'
(lp419
F0
asS'm'
(lp420
F0
asS'gmax'
p421
(lp422
F0.0040000000000000001
assS'HCN2'
p423
(dp424
S'ih'
p425
(lp426
F0
asS'iHCN'
p427
(lp428
F0
asS'm'
(lp429
F0
asS'gmax'
p430
(lp431
F0.00025000000000000001
assS'KCNQ'
p432
(dp433
S'iKCNQ'
p434
(lp435
F0
asS'm'
(lp436
F0
asS'gmax'
p437
(lp438
F0.00020000000000000001
assS'SK'
p439
(dp440
S'iSK'
p441
(lp442
F0
asS'm'
(lp443
F0
asS'gmax'
p444
(lp445
F4.0000000000000003e-05
assS'Calcium'
p446
(dp447
S'tau'
p448
(lp449
F1
asS'depth'
p450
(lp451
F1600000000000
asS'cai0'
p452
(lp453
F5.0000000000000002e-05
assS'NaP'
p454
(dp455
S'h'
(lp456
F0
asS's'
(lp457
F0
asS'm'
(lp458
F0
asS'iNa'
p459
(lp460
F0
asS'gmax'
p461
(lp462
F0.0001015
assS'Kv2'
p463
(dp464
S'm'
(lp465
F0
asS'h'
(lp466
F0
asS'iKv2'
p467
(lp468
F0
asS'gmax'
p469
(lp470
F0.0001
assS'Kv3'
p471
(dp472
S'h'
(lp473
F0
asS'm'
(lp474
F0
asS'iKv3'
p475
(lp476
F0
asS'gmax'
p477
(lp478
F0.001
assS'CaHVA'
p479
(dp480
S'iCaH'
p481
(lp482
F0
asS'm'
(lp483
F0
asS'gmax'
p484
(lp485
F3.0000000000000001e-05
assS'NaF'
p486
(dp487
S'h'
(lp488
F0
asS's'
(lp489
F0
asS'm'
(lp490
F0
asS'iNa'
p491
(lp492
F0
asS'gmax'
p493
(lp494
F0.035000000000000003
assS'HCN'
p495
(dp496
S'ih'
p497
(lp498
F0
asS'iHCN'
p499
(lp500
F0
asS'm'
(lp501
F0
asS'gmax'
p502
(lp503
F0.0001
asssg183
g184
((ltRp504
sg186
(dp505
sg188
F174
sg189
(dp506
g191
(lp507
F1
asg193
F0
sg194
I0
sg195
(lp508
(F0
F0
F0
F1
tp509
a(F-0.031268544495105743
F-0.039754688739776611
F-0.0010306324111297727
F1
tp510
a(F-0.065653093159198761
F-0.074247725307941437
F0.0027121906168758869
F1
tp511
a(F-0.11025959253311157
F-0.088224545121192932
F0.0027121906168758869
F1
tp512
a(F-0.14741659164428711
F-0.10179152339696884
F0.0071119661442935467
F1
tp513
a(F-0.18503168225288391
F-0.097114510834217072
F0.0081968428567051888
F1
tp514
a(F-0.22183308005332947
F-0.11656392365694046
F0.0081968428567051888
F1
tp515
a(F-0.26628890633583069
F-0.11511140316724777
F0.0081968428567051888
F1
tp516
a(F-0.30759254097938538
F-0.12382657080888748
F0.012958244420588017
F1
tp517
a(F-0.34644317626953125
F-0.13950905203819275
F0.012958244420588017
F1
tp518
a(F-0.38663783669471741
F-0.13524790108203888
F0.012958244420588017
F1
tp519
a(F-0.42368635535240173
F-0.14526492357254028
F0.012958244420588017
F1
tp520
a(F-0.46689459681510925
F-0.16115836799144745
F0.012958244420588017
F1
tp521
a(F-0.4980606734752655
F-0.1876293420791626
F0.012958244420588017
F1
tp522
a(F-0.54267919063568115
F-0.1923244446516037
F0.012958244420588017
F1
tp523
a(F-0.57910090684890747
F-0.19077548384666443
F0.038470916450023651
F1
tp524
a(F-0.61789125204086304
F-0.19495828449726105
F0.060632530599832535
F1
tp525
a(F-0.66225063800811768
F-0.1969171017408371
F0.064031802117824554
F1
tp526
a(F-0.69740664958953857
F-0.21556490659713745
F0.059583812952041626
F1
tp527
a(F-0.72667419910430908
F-0.24572446942329407
F0.066297993063926697
F1
tp528
a(F-0.76545852422714233
F-0.25483140349388123
F0.06850992888212204
F1
tp529
a(F-0.80280840396881104
F-0.2811637818813324
F0.07391020655632019
F1
tp530
a(F-0.84789103269577026
F-0.27877703309059143
F0.079979486763477325
F1
tp531
a(F-0.8914065957069397
F-0.29647254943847656
F0.082691676914691925
F1
tp532
asS'L'
F1
sg200
F0.5
ssg201
S'__nrnsec_0x55f88fb53630'
p533
sg203
g184
((ltRp534
sa(dp535
g36
(dp536
S'na'
p537
(dp538
S'ena'
p539
(lp540
F50
asS'dina_dv_'
p541
(lp542
F0
asS'nai'
p543
(lp544
F10
asS'nao'
p545
(lp546
F140
asS'ina'
p547
(lp548
F0
asg50
F8
ssS'k'
(dp549
S'ek'
p550
(lp551
F-90
asS'ki'
p552
(lp553
F54.399999999999999
asS'ko'
p554
(lp555
F2.5
asS'ik'
p556
(lp557
F0
asS'dik_dv_'
p558
(lp559
F0
asg50
F8
ssS'ca'
p560
(dp561
S'eca'
p562
(lp563
F132.45793416370091
asS'dica_dv_'
p564
(lp565
F0
asS'ica'
p566
(lp567
F0
asS'cai'
p568
(lp569
F5.0000000000000002e-05
asS'cao'
p570
(lp571
F2
asg50
F247
sssg74
S'GPe[0].dend[0]'
p572
sg76
(lp573
F2.3999999999999999
asg78
I1
sg79
(dp574
S'pas'
p575
(dp576
S'i'
(lp577
F0
asS'e'
(lp578
F-60
asS'g'
(lp579
F6.802721088435374e-05
assS'Kv4s'
p580
(dp581
S'm'
(lp582
F0
asS'h'
(lp583
F0
asS'iKv4s'
p584
(lp585
F0
asS'gmax'
p586
(lp587
F0.0060000000000000001
assS'Kv4f'
p588
(dp589
S'iKv4f'
p590
(lp591
F0
asS'h'
(lp592
F0
asS'm'
(lp593
F0
asS'gmax'
p594
(lp595
F0.0040000000000000001
assS'HCN2'
p596
(dp597
S'ih'
p598
(lp599
F0
asS'iHCN'
p600
(lp601
F0
asS'm'
(lp602
F0
asS'gmax'
p603
(lp604
F0.00025000000000000001
assS'KCNQ'
p605
(dp606
S'iKCNQ'
p607
(lp608
F0
asS'm'
(lp609
F0
asS'gmax'
p610
(lp611
F0.00020000000000000001
assS'SK'
p612
(dp613
S'iSK'
p614
(lp615
F0
asS'm'
(lp616
F0
asS'gmax'
p617
(lp618
F4.0000000000000003e-05
assS'Calcium'
p619
(dp620
S'tau'
p621
(lp622
F1
asS'depth'
p623
(lp624
F1600000000000
asS'cai0'
p625
(lp626
F5.0000000000000002e-05
assS'NaP'
p627
(dp628
S'h'
(lp629
F0
asS's'
(lp630
F0
asS'm'
(lp631
F0
asS'iNa'
p632
(lp633
F0
asS'gmax'
p634
(lp635
F0.0001015
assS'Kv2'
p636
(dp637
S'm'
(lp638
F0
asS'h'
(lp639
F0
asS'iKv2'
p640
(lp641
F0
asS'gmax'
p642
(lp643
F0.0001
assS'Kv3'
p644
(dp645
S'h'
(lp646
F0
asS'm'
(lp647
F0
asS'iKv3'
p648
(lp649
F0
asS'gmax'
p650
(lp651
F0.001
assS'CaHVA'
p652
(dp653
S'iCaH'
p654
(lp655
F0
asS'm'
(lp656
F0
asS'gmax'
p657
(lp658
F3.0000000000000001e-05
assS'NaF'
p659
(dp660
S'h'
(lp661
F0
asS's'
(lp662
F0
asS'm'
(lp663
F0
asS'iNa'
p664
(lp665
F0
asS'gmax'
p666
(lp667
F0.035000000000000003
assS'HCN'
p668
(dp669
S'ih'
p670
(lp671
F0
asS'iHCN'
p672
(lp673
F0
asS'm'
(lp674
F0
asS'gmax'
p675
(lp676
F0.0001
asssg183
g184
((ltRp677
sg186
(dp678
sg188
F174
sg189
(dp679
g191
(lp680
F1
asg193
F0
sg194
I0
sg195
(lp681
(F0
F0
F0
F1
tp682
a(F-0.13508066534996033
F0.19700303673744202
F0.13420677185058594
F1
tp683
a(F-0.18039886653423309
F0.54001057147979736
F0.11510571092367172
F1
tp684
a(F-0.34831336140632629
F0.86266857385635376
F0.0068663926795125008
F1
tp685
asS'L'
F1
sg200
F0.5
ssg201
S'__nrnsec_0x55f88fb53210'
p686
sg203
g184
((ltRp687
sa(dp688
g36
(dp689
S'na'
p690
(dp691
S'ena'
p692
(lp693
F50
asS'dina_dv_'
p694
(lp695
F0
asS'nai'
p696
(lp697
F10
asS'nao'
p698
(lp699
F140
asS'ina'
p700
(lp701
F0
asg50
F8
ssS'k'
(dp702
S'ek'
p703
(lp704
F-90
asS'ki'
p705
(lp706
F54.399999999999999
asS'ko'
p707
(lp708
F2.5
asS'ik'
p709
(lp710
F0
asS'dik_dv_'
p711
(lp712
F0
asg50
F8
sssg74
S'GPe[0].axon[0]'
p713
sg76
(lp714
F2.3999999999999999
asg78
I1
sg79
(dp715
S'pas'
p716
(dp717
S'i'
(lp718
F0
asS'e'
(lp719
F-60
asS'g'
(lp720
F6.802721088435374e-05
assS'Kv4s'
p721
(dp722
S'm'
(lp723
F0
asS'h'
(lp724
F0
asS'iKv4s'
p725
(lp726
F0
asS'gmax'
p727
(lp728
F0.24000000000000002
assS'KCNQ'
p729
(dp730
S'iKCNQ'
p731
(lp732
F0
asS'm'
(lp733
F0
asS'gmax'
p734
(lp735
F4.0000000000000003e-05
assS'Kv4f'
p736
(dp737
S'iKv4f'
p738
(lp739
F0
asS'h'
(lp740
F0
asS'm'
(lp741
F0
asS'gmax'
p742
(lp743
F0.16
assS'NaP'
p744
(dp745
S'h'
(lp746
F0
asS's'
(lp747
F0
asS'm'
(lp748
F0
asS'iNa'
p749
(lp750
F0
asS'gmax'
p751
(lp752
F0.0040000000000000001
assS'Kv2'
p753
(dp754
S'm'
(lp755
F0
asS'h'
(lp756
F0
asS'iKv2'
p757
(lp758
F0
asS'gmax'
p759
(lp760
F0.064000000000000001
assS'Kv3'
p761
(dp762
S'h'
(lp763
F0
asS'm'
(lp764
F0
asS'iKv3'
p765
(lp766
F0
asS'gmax'
p767
(lp768
F0.128
assS'NaF'
p769
(dp770
S'h'
(lp771
F0
asS's'
(lp772
F0
asS'm'
(lp773
F0
asS'iNa'
p774
(lp775
F0
asS'gmax'
p776
(lp777
F0.5
asssg183
g184
((ltRp778
sg186
(dp779
sg188
F174
sg189
(dp780
g191
(lp781
F1
asg193
F0
sg194
I0
sg195
(lp782
(F0
F0
F0
F1
tp783
a(F-1
F0
F0
F1
tp784
asS'L'
F1
sg200
F0.5
ssg201
S'__nrnsec_0x55f88fb531b0'
p785
sg203
g184
((ltRp786
sa(dp787
g36
(dp788
S'na'
p789
(dp790
S'ena'
p791
(lp792
F50
asS'dina_dv_'
p793
(lp794
F0
asS'nai'
p795
(lp796
F10
asS'nao'
p797
(lp798
F140
asS'ina'
p799
(lp800
F0
asg50
F8
ssS'k'
(dp801
S'ek'
p802
(lp803
F-90
asS'ki'
p804
(lp805
F54.399999999999999
asS'ko'
p806
(lp807
F2.5
asS'ik'
p808
(lp809
F0
asS'dik_dv_'
p810
(lp811
F0
asg50
F8
ssS'ca'
p812
(dp813
S'eca'
p814
(lp815
F132.45793416370091
asS'dica_dv_'
p816
(lp817
F0
asS'ica'
p818
(lp819
F0
asS'cai'
p820
(lp821
F5.0000000000000002e-05
asS'cao'
p822
(lp823
F2
asg50
F247
sssg74
S'zipC0'
p824
sg76
(lp825
F3.3941125496954276
asg78
I1
sg79
(dp826
S'pas'
p827
(dp828
S'i'
(lp829
F0
asS'e'
(lp830
F-60
asS'g'
(lp831
F9.620500424306768e-05
assS'Kv4s'
p832
(dp833
S'm'
(lp834
F0
asS'h'
(lp835
F0
asS'iKv4s'
p836
(lp837
F0
asS'gmax'
p838
(lp839
F0.008485281374238568
assS'Kv4f'
p840
(dp841
S'iKv4f'
p842
(lp843
F0
asS'h'
(lp844
F0
asS'm'
(lp845
F0
asS'gmax'
p846
(lp847
F0.0056568542494923801
assS'HCN2'
p848
(dp849
S'ih'
p850
(lp851
F0
asS'iHCN'
p852
(lp853
F0
asS'm'
(lp854
F0
asS'gmax'
p855
(lp856
F0.00035355339059327376
assS'KCNQ'
p857
(dp858
S'iKCNQ'
p859
(lp860
F0
asS'm'
(lp861
F0
asS'gmax'
p862
(lp863
F0.00028284271247461896
assS'SK'
p864
(dp865
S'iSK'
p866
(lp867
F0
asS'm'
(lp868
F0
asS'gmax'
p869
(lp870
F5.6568542494923811e-05
assS'Calcium'
p871
(dp872
S'tau'
p873
(lp874
F1
asS'depth'
p875
(lp876
F1600000000000
asS'cai0'
p877
(lp878
F5.0000000000000002e-05
assS'NaP'
p879
(dp880
S'h'
(lp881
F0
asS's'
(lp882
F0
asS'm'
(lp883
F0
asS'iNa'
p884
(lp885
F0
asS'gmax'
p886
(lp887
F0.00014354267658086913
assS'Kv2'
p888
(dp889
S'm'
(lp890
F0
asS'h'
(lp891
F0
asS'iKv2'
p892
(lp893
F0
asS'gmax'
p894
(lp895
F0.00014142135623730948
assS'Kv3'
p896
(dp897
S'h'
(lp898
F0
asS'm'
(lp899
F0
asS'iKv3'
p900
(lp901
F0
asS'gmax'
p902
(lp903
F0.001414213562373095
assS'CaHVA'
p904
(dp905
S'iCaH'
p906
(lp907
F0
asS'm'
(lp908
F0
asS'gmax'
p909
(lp910
F8.485281374179173e-05
assS'NaF'
p911
(dp912
S'h'
(lp913
F0
asS's'
(lp914
F0
asS'm'
(lp915
F0
asS'iNa'
p916
(lp917
F0
asS'gmax'
p918
(lp919
F0.049497474683058339
assS'HCN'
p920
(dp921
S'ih'
p922
(lp923
F0
asS'iHCN'
p924
(lp925
F0
asS'm'
(lp926
F0
asS'gmax'
p927
(lp928
F0.00014142135623730948
asssg183
g184
((ltRp929
sg186
(dp930
sg188
F174
sg189
(dp931
g191
(lp932
F1.4142135623730949
asg193
F0
sg194
I1
sg195
(lp933
sS'L'
F0.9999999999860002
sg200
F1
ssg201
S'__nrnsec_0x55f88fb543b0'
p934
sg203
g184
((ltRp935
sa(dp936
g36
(dp937
S'na'
p938
(dp939
S'ena'
p940
(lp941
F50
asS'dina_dv_'
p942
(lp943
F0
asS'nai'
p944
(lp945
F10
asS'nao'
p946
(lp947
F140
asS'ina'
p948
(lp949
F0
asg50
F8
ssS'k'
(dp950
S'ek'
p951
(lp952
F-90
asS'ki'
p953
(lp954
F54.399999999999999
asS'ko'
p955
(lp956
F2.5
asS'ik'
p957
(lp958
F0
asS'dik_dv_'
p959
(lp960
F0
asg50
F8
ssS'ca'
p961
(dp962
S'eca'
p963
(lp964
F132.45793416370091
asS'dica_dv_'
p965
(lp966
F0
asS'ica'
p967
(lp968
F0
asS'cai'
p969
(lp970
F5.0000000000000002e-05
asS'cao'
p971
(lp972
F2
asg50
F247
sssg74
S'zipB0'
p973
sg76
(lp974
F3.394112549695429
asg78
I1
sg79
(dp975
S'pas'
p976
(dp977
S'i'
(lp978
F0
asS'e'
(lp979
F-60
asS'g'
(lp980
F9.6205004243067707e-05
assS'Kv4s'
p981
(dp982
S'm'
(lp983
F0
asS'h'
(lp984
F0
asS'iKv4s'
p985
(lp986
F0
asS'gmax'
p987
(lp988
F0.0084852813742385732
assS'Kv4f'
p989
(dp990
S'iKv4f'
p991
(lp992
F0
asS'h'
(lp993
F0
asS'm'
(lp994
F0
asS'gmax'
p995
(lp996
F0.0056568542494923818
assS'HCN2'
p997
(dp998
S'ih'
p999
(lp1000
F0
asS'iHCN'
p1001
(lp1002
F0
asS'm'
(lp1003
F0
asS'gmax'
p1004
(lp1005
F0.00035355339059327386
assS'KCNQ'
p1006
(dp1007
S'iKCNQ'
p1008
(lp1009
F0
asS'm'
(lp1010
F0
asS'gmax'
p1011
(lp1012
F0.00028284271247461907
assS'SK'
p1013
(dp1014
S'iSK'
p1015
(lp1016
F0
asS'm'
(lp1017
F0
asS'gmax'
p1018
(lp1019
F5.6568542494923811e-05
assS'Calcium'
p1020
(dp1021
S'tau'
p1022
(lp1023
F1
asS'depth'
p1024
(lp1025
F1600000000000
asS'cai0'
p1026
(lp1027
F5.0000000000000002e-05
assS'NaP'
p1028
(dp1029
S'h'
(lp1030
F0
asS's'
(lp1031
F0
asS'm'
(lp1032
F0
asS'iNa'
p1033
(lp1034
F0
asS'gmax'
p1035
(lp1036
F0.00014354267658086919
assS'Kv2'
p1037
(dp1038
S'm'
(lp1039
F0
asS'h'
(lp1040
F0
asS'iKv2'
p1041
(lp1042
F0
asS'gmax'
p1043
(lp1044
F0.00014142135623730954
assS'Kv3'
p1045
(dp1046
S'h'
(lp1047
F0
asS'm'
(lp1048
F0
asS'iKv3'
p1049
(lp1050
F0
asS'gmax'
p1051
(lp1052
F0.0014142135623730955
assS'CaHVA'
p1053
(dp1054
S'iCaH'
p1055
(lp1056
F0
asS'm'
(lp1057
F0
asS'gmax'
p1058
(lp1059
F5.3033008588969852e-05
assS'NaF'
p1060
(dp1061
S'h'
(lp1062
F0
asS's'
(lp1063
F0
asS'm'
(lp1064
F0
asS'iNa'
p1065
(lp1066
F0
asS'gmax'
p1067
(lp1068
F0.049497474683058332
assS'HCN'
p1069
(dp1070
S'ih'
p1071
(lp1072
F0
asS'iHCN'
p1073
(lp1074
F0
asS'm'
(lp1075
F0
asS'gmax'
p1076
(lp1077
F0.00014142135623730954
asssg183
g184
((ltRp1078
sg186
(dp1079
sg188
F174
sg189
(dp1080
g191
(lp1081
F1.4142135623730951
asg193
F0
sg194
I2
sg195
(lp1082
sS'L'
F0.99999999999799993
sg200
F1
ssg201
S'__nrnsec_0x55f88fb54290'
p1083
sg203
g184
((ltRp1084
sa(dp1085
g36
(dp1086
S'na'
p1087
(dp1088
S'ena'
p1089
(lp1090
F50
asS'dina_dv_'
p1091
(lp1092
F0
asS'nai'
p1093
(lp1094
F10
asS'nao'
p1095
(lp1096
F140
asS'ina'
p1097
(lp1098
F0
asg50
F8
ssS'k'
(dp1099
S'ek'
p1100
(lp1101
F-90
asS'ki'
p1102
(lp1103
F54.399999999999999
asS'ko'
p1104
(lp1105
F2.5
asS'ik'
p1106
(lp1107
F0
asS'dik_dv_'
p1108
(lp1109
F0
asg50
F8
ssS'ca'
p1110
(dp1111
S'eca'
p1112
(lp1113
F132.45793416370091
asS'dica_dv_'
p1114
(lp1115
F0
asS'ica'
p1116
(lp1117
F0
asS'cai'
p1118
(lp1119
F5.0000000000000002e-05
asS'cao'
p1120
(lp1121
F2
asg50
F247
sssg74
S'zipA0'
p1122
sg76
(lp1123
F3.3941125496954276
asg78
I1
sg79
(dp1124
S'pas'
p1125
(dp1126
S'i'
(lp1127
F0
asS'e'
(lp1128
F-60
asS'g'
(lp1129
F9.620500424306768e-05
assS'Kv4s'
p1130
(dp1131
S'm'
(lp1132
F0
asS'h'
(lp1133
F0
asS'iKv4s'
p1134
(lp1135
F0
asS'gmax'
p1136
(lp1137
F0.0084852813742385715
assS'Kv4f'
p1138
(dp1139
S'iKv4f'
p1140
(lp1141
F0
asS'h'
(lp1142
F0
asS'm'
(lp1143
F0
asS'gmax'
p1144
(lp1145
F0.005656854249492381
assS'HCN2'
p1146
(dp1147
S'ih'
p1148
(lp1149
F0
asS'iHCN'
p1150
(lp1151
F0
asS'm'
(lp1152
F0
asS'gmax'
p1153
(lp1154
F0.00035355339059327381
assS'KCNQ'
p1155
(dp1156
S'iKCNQ'
p1157
(lp1158
F0
asS'm'
(lp1159
F0
asS'gmax'
p1160
(lp1161
F0.00028284271247461896
assS'SK'
p1162
(dp1163
S'iSK'
p1164
(lp1165
F0
asS'm'
(lp1166
F0
asS'gmax'
p1167
(lp1168
F5.6568542494923811e-05
assS'Calcium'
p1169
(dp1170
S'tau'
p1171
(lp1172
F1
asS'depth'
p1173
(lp1174
F1600000000000
asS'cai0'
p1175
(lp1176
F5.0000000000000002e-05
assS'NaP'
p1177
(dp1178
S'h'
(lp1179
F0
asS's'
(lp1180
F0
asS'm'
(lp1181
F0
asS'iNa'
p1182
(lp1183
F0
asS'gmax'
p1184
(lp1185
F0.00014354267658086916
assS'Kv2'
p1186
(dp1187
S'm'
(lp1188
F0
asS'h'
(lp1189
F0
asS'iKv2'
p1190
(lp1191
F0
asS'gmax'
p1192
(lp1193
F0.00014142135623730948
assS'Kv3'
p1194
(dp1195
S'h'
(lp1196
F0
asS'm'
(lp1197
F0
asS'iKv3'
p1198
(lp1199
F0
asS'gmax'
p1200
(lp1201
F0.0014142135623730952
assS'CaHVA'
p1202
(dp1203
S'iCaH'
p1204
(lp1205
F0
asS'm'
(lp1206
F0
asS'gmax'
p1207
(lp1208
F6.3639610306715015e-05
assS'NaF'
p1209
(dp1210
S'h'
(lp1211
F0
asS's'
(lp1212
F0
asS'm'
(lp1213
F0
asS'iNa'
p1214
(lp1215
F0
asS'gmax'
p1216
(lp1217
F0.049497474683058332
assS'HCN'
p1218
(dp1219
S'ih'
p1220
(lp1221
F0
asS'iHCN'
p1222
(lp1223
F0
asS'm'
(lp1224
F0
asS'gmax'
p1225
(lp1226
F0.00014142135623730948
asssg183
g184
((ltRp1227
sg186
(dp1228
sg188
F174
sg189
(dp1229
g191
(lp1230
F1.4142135623730949
asg193
F0
sg194
I3
sg195
(lp1231
sS'L'
F0.99999999998800015
sg200
F1
ssg201
S'__nrnsec_0x55f88fb540b0'
p1232
sg203
g184
((ltRp1233
sa(dp1234
g36
(dp1235
S'na'
p1236
(dp1237
S'ena'
p1238
(lp1239
F50
asS'dina_dv_'
p1240
(lp1241
F0
asS'nai'
p1242
(lp1243
F10
asS'nao'
p1244
(lp1245
F140
asS'ina'
p1246
(lp1247
F0
asg50
F8
ssS'k'
(dp1248
S'ek'
p1249
(lp1250
F-90
asS'ki'
p1251
(lp1252
F54.399999999999999
asS'ko'
p1253
(lp1254
F2.5
asS'ik'
p1255
(lp1256
F0
asS'dik_dv_'
p1257
(lp1258
F0
asg50
F8
ssS'ca'
p1259
(dp1260
S'eca'
p1261
(lp1262
F132.45793416370091
asS'dica_dv_'
p1263
(lp1264
F0
asS'ica'
p1265
(lp1266
F0
asS'cai'
p1267
(lp1268
F5.0000000000000002e-05
asS'cao'
p1269
(lp1270
F2
asg50
F247
sssg74
S'zipC1'
p1271
sg76
(lp1272
F4.8000000000000007
asg78
I1
sg79
(dp1273
S'pas'
p1274
(dp1275
S'i'
(lp1276
F0
asS'e'
(lp1277
F-60
asS'g'
(lp1278
F0.00013605442176870751
assS'Kv4s'
p1279
(dp1280
S'm'
(lp1281
F0
asS'h'
(lp1282
F0
asS'iKv4s'
p1283
(lp1284
F0
asS'gmax'
p1285
(lp1286
F0.012000000000000004
assS'Kv4f'
p1287
(dp1288
S'iKv4f'
p1289
(lp1290
F0
asS'h'
(lp1291
F0
asS'm'
(lp1292
F0
asS'gmax'
p1293
(lp1294
F0.0080000000000000019
assS'HCN2'
p1295
(dp1296
S'ih'
p1297
(lp1298
F0
asS'iHCN'
p1299
(lp1300
F0
asS'm'
(lp1301
F0
asS'gmax'
p1302
(lp1303
F0.00050000000000000012
assS'KCNQ'
p1304
(dp1305
S'iKCNQ'
p1306
(lp1307
F0
asS'm'
(lp1308
F0
asS'gmax'
p1309
(lp1310
F0.00040000000000000007
assS'SK'
p1311
(dp1312
S'iSK'
p1313
(lp1314
F0
asS'm'
(lp1315
F0
asS'gmax'
p1316
(lp1317
F8.000000000000002e-05
assS'Calcium'
p1318
(dp1319
S'tau'
p1320
(lp1321
F1
asS'depth'
p1322
(lp1323
F1600000000000
asS'cai0'
p1324
(lp1325
F5.0000000000000002e-05
assS'NaP'
p1326
(dp1327
S'h'
(lp1328
F0
asS's'
(lp1329
F0
asS'm'
(lp1330
F0
asS'iNa'
p1331
(lp1332
F0
asS'gmax'
p1333
(lp1334
F0.00020300000000000006
assS'Kv2'
p1335
(dp1336
S'm'
(lp1337
F0
asS'h'
(lp1338
F0
asS'iKv2'
p1339
(lp1340
F0
asS'gmax'
p1341
(lp1342
F0.00020000000000000004
assS'Kv3'
p1343
(dp1344
S'h'
(lp1345
F0
asS'm'
(lp1346
F0
asS'iKv3'
p1347
(lp1348
F0
asS'gmax'
p1349
(lp1350
F0.0020000000000000005
assS'CaHVA'
p1351
(dp1352
S'iCaH'
p1353
(lp1354
F0
asS'm'
(lp1355
F0
asS'gmax'
p1356
(lp1357
F0.00017250000000009372
assS'NaF'
p1358
(dp1359
S'h'
(lp1360
F0
asS's'
(lp1361
F0
asS'm'
(lp1362
F0
asS'iNa'
p1363
(lp1364
F0
asS'gmax'
p1365
(lp1366
F0.070000000000000021
assS'HCN'
p1367
(dp1368
S'ih'
p1369
(lp1370
F0
asS'iHCN'
p1371
(lp1372
F0
asS'm'
(lp1373
F0
asS'gmax'
p1374
(lp1375
F0.00020000000000000004
asssg183
g184
((ltRp1376
sg186
(dp1377
sg188
F174
sg189
(dp1378
g191
(lp1379
F2.0000000000009996
asg193
F0
sg194
I5
sg195
(lp1380
sS'L'
F0.99999999999000011
sg200
F1
ssg201
S'__nrnsec_0x55f88fb54410'
p1381
sg203
g184
((ltRp1382
sa(dp1383
g36
(dp1384
S'na'
p1385
(dp1386
S'ena'
p1387
(lp1388
F50
asS'dina_dv_'
p1389
(lp1390
F0
asS'nai'
p1391
(lp1392
F10
asS'nao'
p1393
(lp1394
F140
asS'ina'
p1395
(lp1396
F0
asg50
F8
ssS'k'
(dp1397
S'ek'
p1398
(lp1399
F-90
asS'ki'
p1400
(lp1401
F54.399999999999999
asS'ko'
p1402
(lp1403
F2.5
asS'ik'
p1404
(lp1405
F0
asS'dik_dv_'
p1406
(lp1407
F0
asg50
F8
ssS'ca'
p1408
(dp1409
S'eca'
p1410
(lp1411
F132.45793416370091
asS'dica_dv_'
p1412
(lp1413
F0
asS'ica'
p1414
(lp1415
F0
asS'cai'
p1416
(lp1417
F5.0000000000000002e-05
asS'cao'
p1418
(lp1419
F2
asg50
F247
sssg74
S'zipB1'
p1420
sg76
(lp1421
F4.8000000000000007
asg78
I1
sg79
(dp1422
S'pas'
p1423
(dp1424
S'i'
(lp1425
F0
asS'e'
(lp1426
F-60
asS'g'
(lp1427
F0.00013605442176870751
assS'Kv4s'
p1428
(dp1429
S'm'
(lp1430
F0
asS'h'
(lp1431
F0
asS'iKv4s'
p1432
(lp1433
F0
asS'gmax'
p1434
(lp1435
F0.012000000000000002
assS'Kv4f'
p1436
(dp1437
S'iKv4f'
p1438
(lp1439
F0
asS'h'
(lp1440
F0
asS'm'
(lp1441
F0
asS'gmax'
p1442
(lp1443
F0.0080000000000000002
assS'HCN2'
p1444
(dp1445
S'ih'
p1446
(lp1447
F0
asS'iHCN'
p1448
(lp1449
F0
asS'm'
(lp1450
F0
asS'gmax'
p1451
(lp1452
F0.00050000000000000001
assS'KCNQ'
p1453
(dp1454
S'iKCNQ'
p1455
(lp1456
F0
asS'm'
(lp1457
F0
asS'gmax'
p1458
(lp1459
F0.00039999999999999996
assS'SK'
p1460
(dp1461
S'iSK'
p1462
(lp1463
F0
asS'm'
(lp1464
F0
asS'gmax'
p1465
(lp1466
F8.0000000000000007e-05
assS'Calcium'
p1467
(dp1468
S'tau'
p1469
(lp1470
F1
asS'depth'
p1471
(lp1472
F1600000000000
asS'cai0'
p1473
(lp1474
F5.0000000000000002e-05
assS'NaP'
p1475
(dp1476
S'h'
(lp1477
F0
asS's'
(lp1478
F0
asS'm'
(lp1479
F0
asS'iNa'
p1480
(lp1481
F0
asS'gmax'
p1482
(lp1483
F0.000203
assS'Kv2'
p1484
(dp1485
S'm'
(lp1486
F0
asS'h'
(lp1487
F0
asS'iKv2'
p1488
(lp1489
F0
asS'gmax'
p1490
(lp1491
F0.00019999999999999998
assS'Kv3'
p1492
(dp1493
S'h'
(lp1494
F0
asS'm'
(lp1495
F0
asS'iKv3'
p1496
(lp1497
F0
asS'gmax'
p1498
(lp1499
F0.002
assS'CaHVA'
p1500
(dp1501
S'iCaH'
p1502
(lp1503
F0
asS'm'
(lp1504
F0
asS'gmax'
p1505
(lp1506
F0.00012000000000008248
assS'NaF'
p1507
(dp1508
S'h'
(lp1509
F0
asS's'
(lp1510
F0
asS'm'
(lp1511
F0
asS'iNa'
p1512
(lp1513
F0
asS'gmax'
p1514
(lp1515
F0.070000000000000007
assS'HCN'
p1516
(dp1517
S'ih'
p1518
(lp1519
F0
asS'iHCN'
p1520
(lp1521
F0
asS'm'
(lp1522
F0
asS'gmax'
p1523
(lp1524
F0.00019999999999999998
asssg183
g184
((ltRp1525
sg186
(dp1526
sg188
F174
sg189
(dp1527
g191
(lp1528
F2.0000000000010001
asg193
F0
sg194
I6
sg195
(lp1529
sS'L'
F0.999999999995
sg200
F1
ssg201
S'__nrnsec_0x55f88fb542f0'
p1530
sg203
g184
((ltRp1531
sa(dp1532
g36
(dp1533
S'na'
p1534
(dp1535
S'ena'
p1536
(lp1537
F50
asS'dina_dv_'
p1538
(lp1539
F0
asS'nai'
p1540
(lp1541
F10
asS'nao'
p1542
(lp1543
F140
asS'ina'
p1544
(lp1545
F0
asg50
F8
ssS'k'
(dp1546
S'ek'
p1547
(lp1548
F-90
asS'ki'
p1549
(lp1550
F54.399999999999999
asS'ko'
p1551
(lp1552
F2.5
asS'ik'
p1553
(lp1554
F0
asS'dik_dv_'
p1555
(lp1556
F0
asg50
F8
ssS'ca'
p1557
(dp1558
S'eca'
p1559
(lp1560
F132.45793416370091
asS'dica_dv_'
p1561
(lp1562
F0
asS'ica'
p1563
(lp1564
F0
asS'cai'
p1565
(lp1566
F5.0000000000000002e-05
asS'cao'
p1567
(lp1568
F2
asg50
F247
sssg74
S'zipA1'
p1569
sg76
(lp1570
F3.394112549695429
asg78
I1
sg79
(dp1571
S'pas'
p1572
(dp1573
S'i'
(lp1574
F0
asS'e'
(lp1575
F-60
asS'g'
(lp1576
F9.6205004243067707e-05
assS'Kv4s'
p1577
(dp1578
S'm'
(lp1579
F0
asS'h'
(lp1580
F0
asS'iKv4s'
p1581
(lp1582
F0
asS'gmax'
p1583
(lp1584
F0.0084852813742385732
assS'Kv4f'
p1585
(dp1586
S'iKv4f'
p1587
(lp1588
F0
asS'h'
(lp1589
F0
asS'm'
(lp1590
F0
asS'gmax'
p1591
(lp1592
F0.0056568542494923801
assS'HCN2'
p1593
(dp1594
S'ih'
p1595
(lp1596
F0
asS'iHCN'
p1597
(lp1598
F0
asS'm'
(lp1599
F0
asS'gmax'
p1600
(lp1601
F0.00035355339059327376
assS'KCNQ'
p1602
(dp1603
S'iKCNQ'
p1604
(lp1605
F0
asS'm'
(lp1606
F0
asS'gmax'
p1607
(lp1608
F0.00028284271247461902
assS'SK'
p1609
(dp1610
S'iSK'
p1611
(lp1612
F0
asS'm'
(lp1613
F0
asS'gmax'
p1614
(lp1615
F5.6568542494923811e-05
assS'Calcium'
p1616
(dp1617
S'tau'
p1618
(lp1619
F1
asS'depth'
p1620
(lp1621
F1600000000000
asS'cai0'
p1622
(lp1623
F5.0000000000000002e-05
assS'NaP'
p1624
(dp1625
S'h'
(lp1626
F0
asS's'
(lp1627
F0
asS'm'
(lp1628
F0
asS'iNa'
p1629
(lp1630
F0
asS'gmax'
p1631
(lp1632
F0.00014354267658086919
assS'Kv2'
p1633
(dp1634
S'm'
(lp1635
F0
asS'h'
(lp1636
F0
asS'iKv2'
p1637
(lp1638
F0
asS'gmax'
p1639
(lp1640
F0.00014142135623730951
assS'Kv3'
p1641
(dp1642
S'h'
(lp1643
F0
asS'm'
(lp1644
F0
asS'iKv3'
p1645
(lp1646
F0
asS'gmax'
p1647
(lp1648
F0.001414213562373095
assS'CaHVA'
p1649
(dp1650
S'iCaH'
p1651
(lp1652
F0
asS'm'
(lp1653
F0
asS'gmax'
p1654
(lp1655
F4.8487322138477336e-05
assS'NaF'
p1656
(dp1657
S'h'
(lp1658
F0
asS's'
(lp1659
F0
asS'm'
(lp1660
F0
asS'iNa'
p1661
(lp1662
F0
asS'gmax'
p1663
(lp1664
F0.049497474683058332
assS'HCN'
p1665
(dp1666
S'ih'
p1667
(lp1668
F0
asS'iHCN'
p1669
(lp1670
F0
asS'm'
(lp1671
F0
asS'gmax'
p1672
(lp1673
F0.00014142135623730951
asssg183
g184
((ltRp1674
sg186
(dp1675
sg188
F174
sg189
(dp1676
g191
(lp1677
F1.4142135623738021
asg193
F0
sg194
I7
sg195
(lp1678
sS'L'
F0.99999999999200007
sg200
F1
ssg201
S'__nrnsec_0x55f88fb54110'
p1679
sg203
g184
((ltRp1680
sa(dp1681
g36
(dp1682
S'na'
p1683
(dp1684
S'ena'
p1685
(lp1686
F50
asS'dina_dv_'
p1687
(lp1688
F0
asS'nai'
p1689
(lp1690
F10
asS'nao'
p1691
(lp1692
F140
asS'ina'
p1693
(lp1694
F0
asg50
F8
ssS'k'
(dp1695
S'ek'
p1696
(lp1697
F-90
asS'ki'
p1698
(lp1699
F54.399999999999999
asS'ko'
p1700
(lp1701
F2.5
asS'ik'
p1702
(lp1703
F0
asS'dik_dv_'
p1704
(lp1705
F0
asg50
F8
ssS'ca'
p1706
(dp1707
S'eca'
p1708
(lp1709
F132.45793416370091
asS'dica_dv_'
p1710
(lp1711
F0
asS'ica'
p1712
(lp1713
F0
asS'cai'
p1714
(lp1715
F5.0000000000000002e-05
asS'cao'
p1716
(lp1717
F2
asg50
F247
sssg74
S'zipC2'
p1718
sg76
(lp1719
F4.8000000000000016
asg78
I1
sg79
(dp1720
S'pas'
p1721
(dp1722
S'i'
(lp1723
F0
asS'e'
(lp1724
F-60
asS'g'
(lp1725
F0.00013605442176870753
assS'Kv4s'
p1726
(dp1727
S'm'
(lp1728
F0
asS'h'
(lp1729
F0
asS'iKv4s'
p1730
(lp1731
F0
asS'gmax'
p1732
(lp1733
F0.012000000000000004
assS'Kv4f'
p1734
(dp1735
S'iKv4f'
p1736
(lp1737
F0
asS'h'
(lp1738
F0
asS'm'
(lp1739
F0
asS'gmax'
p1740
(lp1741
F0.0080000000000000036
assS'HCN2'
p1742
(dp1743
S'ih'
p1744
(lp1745
F0
asS'iHCN'
p1746
(lp1747
F0
asS'm'
(lp1748
F0
asS'gmax'
p1749
(lp1750
F0.00050000000000000023
assS'KCNQ'
p1751
(dp1752
S'iKCNQ'
p1753
(lp1754
F0
asS'm'
(lp1755
F0
asS'gmax'
p1756
(lp1757
F0.00040000000000000013
assS'SK'
p1758
(dp1759
S'iSK'
p1760
(lp1761
F0
asS'm'
(lp1762
F0
asS'gmax'
p1763
(lp1764
F8.0000000000000034e-05
assS'Calcium'
p1765
(dp1766
S'tau'
p1767
(lp1768
F1
asS'depth'
p1769
(lp1770
F1600000000000
asS'cai0'
p1771
(lp1772
F5.0000000000000002e-05
assS'NaP'
p1773
(dp1774
S'h'
(lp1775
F0
asS's'
(lp1776
F0
asS'm'
(lp1777
F0
asS'iNa'
p1778
(lp1779
F0
asS'gmax'
p1780
(lp1781
F0.00020300000000000011
assS'Kv2'
p1782
(dp1783
S'm'
(lp1784
F0
asS'h'
(lp1785
F0
asS'iKv2'
p1786
(lp1787
F0
asS'gmax'
p1788
(lp1789
F0.00020000000000000006
assS'Kv3'
p1790
(dp1791
S'h'
(lp1792
F0
asS'm'
(lp1793
F0
asS'iKv3'
p1794
(lp1795
F0
asS'gmax'
p1796
(lp1797
F0.0020000000000000009
assS'CaHVA'
p1798
(dp1799
S'iCaH'
p1800
(lp1801
F0
asS'm'
(lp1802
F0
asS'gmax'
p1803
(lp1804
F0.00018000000000000004
assS'NaF'
p1805
(dp1806
S'h'
(lp1807
F0
asS's'
(lp1808
F0
asS'm'
(lp1809
F0
asS'iNa'
p1810
(lp1811
F0
asS'gmax'
p1812
(lp1813
F0.070000000000000034
assS'HCN'
p1814
(dp1815
S'ih'
p1816
(lp1817
F0
asS'iHCN'
p1818
(lp1819
F0
asS'm'
(lp1820
F0
asS'gmax'
p1821
(lp1822
F0.00020000000000000006
asssg183
g184
((ltRp1823
sg186
(dp1824
sg188
F174
sg189
(dp1825
g191
(lp1826
F2.0000000000009996
asg193
F0
sg194
I8
sg195
(lp1827
sS'L'
F0.99999999998900013
sg200
F1
ssg201
S'__nrnsec_0x55f88fb54470'
p1828
sg203
g184
((ltRp1829
sa(dp1830
g36
(dp1831
S'na'
p1832
(dp1833
S'ena'
p1834
(lp1835
F50
asS'dina_dv_'
p1836
(lp1837
F0
asS'nai'
p1838
(lp1839
F10
asS'nao'
p1840
(lp1841
F140
asS'ina'
p1842
(lp1843
F0
asg50
F8
ssS'k'
(dp1844
S'ek'
p1845
(lp1846
F-90
asS'ki'
p1847
(lp1848
F54.399999999999999
asS'ko'
p1849
(lp1850
F2.5
asS'ik'
p1851
(lp1852
F0
asS'dik_dv_'
p1853
(lp1854
F0
asg50
F8
ssS'ca'
p1855
(dp1856
S'eca'
p1857
(lp1858
F132.45793416370091
asS'dica_dv_'
p1859
(lp1860
F0
asS'ica'
p1861
(lp1862
F0
asS'cai'
p1863
(lp1864
F5.0000000000000002e-05
asS'cao'
p1865
(lp1866
F2
asg50
F247
sssg74
S'zipB2'
p1867
sg76
(lp1868
F4.8000000000000007
asg78
I1
sg79
(dp1869
S'pas'
p1870
(dp1871
S'i'
(lp1872
F0
asS'e'
(lp1873
F-60
asS'g'
(lp1874
F0.00013605442176870751
assS'Kv4s'
p1875
(dp1876
S'm'
(lp1877
F0
asS'h'
(lp1878
F0
asS'iKv4s'
p1879
(lp1880
F0
asS'gmax'
p1881
(lp1882
F0.012000000000000004
assS'Kv4f'
p1883
(dp1884
S'iKv4f'
p1885
(lp1886
F0
asS'h'
(lp1887
F0
asS'm'
(lp1888
F0
asS'gmax'
p1889
(lp1890
F0.0080000000000000019
assS'HCN2'
p1891
(dp1892
S'ih'
p1893
(lp1894
F0
asS'iHCN'
p1895
(lp1896
F0
asS'm'
(lp1897
F0
asS'gmax'
p1898
(lp1899
F0.00050000000000000012
assS'KCNQ'
p1900
(dp1901
S'iKCNQ'
p1902
(lp1903
F0
asS'm'
(lp1904
F0
asS'gmax'
p1905
(lp1906
F0.00040000000000000007
assS'SK'
p1907
(dp1908
S'iSK'
p1909
(lp1910
F0
asS'm'
(lp1911
F0
asS'gmax'
p1912
(lp1913
F8.000000000000002e-05
assS'Calcium'
p1914
(dp1915
S'tau'
p1916
(lp1917
F1
asS'depth'
p1918
(lp1919
F1600000000000
asS'cai0'
p1920
(lp1921
F5.0000000000000002e-05
assS'NaP'
p1922
(dp1923
S'h'
(lp1924
F0
asS's'
(lp1925
F0
asS'm'
(lp1926
F0
asS'iNa'
p1927
(lp1928
F0
asS'gmax'
p1929
(lp1930
F0.00020300000000000006
assS'Kv2'
p1931
(dp1932
S'm'
(lp1933
F0
asS'h'
(lp1934
F0
asS'iKv2'
p1935
(lp1936
F0
asS'gmax'
p1937
(lp1938
F0.00020000000000000004
assS'Kv3'
p1939
(dp1940
S'h'
(lp1941
F0
asS'm'
(lp1942
F0
asS'iKv3'
p1943
(lp1944
F0
asS'gmax'
p1945
(lp1946
F0.0020000000000000005
assS'CaHVA'
p1947
(dp1948
S'iCaH'
p1949
(lp1950
F0
asS'm'
(lp1951
F0
asS'gmax'
p1952
(lp1953
F0.00013500000000000748
assS'NaF'
p1954
(dp1955
S'h'
(lp1956
F0
asS's'
(lp1957
F0
asS'm'
(lp1958
F0
asS'iNa'
p1959
(lp1960
F0
asS'gmax'
p1961
(lp1962
F0.070000000000000021
assS'HCN'
p1963
(dp1964
S'ih'
p1965
(lp1966
F0
asS'iHCN'
p1967
(lp1968
F0
asS'm'
(lp1969
F0
asS'gmax'
p1970
(lp1971
F0.00020000000000000004
asssg183
g184
((ltRp1972
sg186
(dp1973
sg188
F174
sg189
(dp1974
g191
(lp1975
F2.0000000000009996
asg193
F0
sg194
I9
sg195
(lp1976
sS'L'
F0.99999999999800004
sg200
F1
ssg201
S'__nrnsec_0x55f88fb54350'
p1977
sg203
g184
((ltRp1978
sa(dp1979
g36
(dp1980
S'na'
p1981
(dp1982
S'ena'
p1983
(lp1984
F50
asS'dina_dv_'
p1985
(lp1986
F0
asS'nai'
p1987
(lp1988
F10
asS'nao'
p1989
(lp1990
F140
asS'ina'
p1991
(lp1992
F0
asg50
F8
ssS'k'
(dp1993
S'ek'
p1994
(lp1995
F-90
asS'ki'
p1996
(lp1997
F54.399999999999999
asS'ko'
p1998
(lp1999
F2.5
asS'ik'
p2000
(lp2001
F0
asS'dik_dv_'
p2002
(lp2003
F0
asg50
F8
ssS'ca'
p2004
(dp2005
S'eca'
p2006
(lp2007
F132.45793416370091
asS'dica_dv_'
p2008
(lp2009
F0
asS'ica'
p2010
(lp2011
F0
asS'cai'
p2012
(lp2013
F5.0000000000000002e-05
asS'cao'
p2014
(lp2015
F2
asg50
F247
sssg74
S'zipA2'
p2016
sg76
(lp2017
F3.3941125496954281
asg78
I1
sg79
(dp2018
S'pas'
p2019
(dp2020
S'i'
(lp2021
F0
asS'e'
(lp2022
F-60
asS'g'
(lp2023
F9.6205004243067694e-05
assS'Kv4s'
p2024
(dp2025
S'm'
(lp2026
F0
asS'h'
(lp2027
F0
asS'iKv4s'
p2028
(lp2029
F0
asS'gmax'
p2030
(lp2031
F0.0084852813742385715
assS'Kv4f'
p2032
(dp2033
S'iKv4f'
p2034
(lp2035
F0
asS'h'
(lp2036
F0
asS'm'
(lp2037
F0
asS'gmax'
p2038
(lp2039
F0.005656854249492381
assS'HCN2'
p2040
(dp2041
S'ih'
p2042
(lp2043
F0
asS'iHCN'
p2044
(lp2045
F0
asS'm'
(lp2046
F0
asS'gmax'
p2047
(lp2048
F0.00035355339059327381
assS'KCNQ'
p2049
(dp2050
S'iKCNQ'
p2051
(lp2052
F0
asS'm'
(lp2053
F0
asS'gmax'
p2054
(lp2055
F0.00028284271247461902
assS'SK'
p2056
(dp2057
S'iSK'
p2058
(lp2059
F0
asS'm'
(lp2060
F0
asS'gmax'
p2061
(lp2062
F5.6568542494923798e-05
assS'Calcium'
p2063
(dp2064
S'tau'
p2065
(lp2066
F1
asS'depth'
p2067
(lp2068
F1600000000000
asS'cai0'
p2069
(lp2070
F5.0000000000000002e-05
assS'NaP'
p2071
(dp2072
S'h'
(lp2073
F0
asS's'
(lp2074
F0
asS'm'
(lp2075
F0
asS'iNa'
p2076
(lp2077
F0
asS'gmax'
p2078
(lp2079
F0.00014354267658086916
assS'Kv2'
p2080
(dp2081
S'm'
(lp2082
F0
asS'h'
(lp2083
F0
asS'iKv2'
p2084
(lp2085
F0
asS'gmax'
p2086
(lp2087
F0.00014142135623730951
assS'Kv3'
p2088
(dp2089
S'h'
(lp2090
F0
asS'm'
(lp2091
F0
asS'iKv3'
p2092
(lp2093
F0
asS'gmax'
p2094
(lp2095
F0.0014142135623730952
assS'CaHVA'
p2096
(dp2097
S'iCaH'
p2098
(lp2099
F0
asS'm'
(lp2100
F0
asS'gmax'
p2101
(lp2102
F6.3639610306789269e-05
assS'NaF'
p2103
(dp2104
S'h'
(lp2105
F0
asS's'
(lp2106
F0
asS'm'
(lp2107
F0
asS'iNa'
p2108
(lp2109
F0
asS'gmax'
p2110
(lp2111
F0.049497474683058332
assS'HCN'
p2112
(dp2113
S'ih'
p2114
(lp2115
F0
asS'iHCN'
p2116
(lp2117
F0
asS'm'
(lp2118
F0
asS'gmax'
p2119
(lp2120
F0.00014142135623730951
asssg183
g184
((ltRp2121
sg186
(dp2122
sg188
F174
sg189
(dp2123
g191
(lp2124
F1.4142135623738021
asg193
F0
sg194
I10
sg195
(lp2125
sS'L'
F0.99999999999400002
sg200
F1
ssg201
S'__nrnsec_0x55f88fb54170'
p2126
sg203
g184
((ltRp2127
sa(dp2128
g36
(dp2129
S'na'
p2130
(dp2131
S'ena'
p2132
(lp2133
F50
asS'dina_dv_'
p2134
(lp2135
F0
asS'nai'
p2136
(lp2137
F10
asS'nao'
p2138
(lp2139
F140
asS'ina'
p2140
(lp2141
F0
asg50
F8
ssS'k'
(dp2142
S'ek'
p2143
(lp2144
F-90
asS'ki'
p2145
(lp2146
F54.399999999999999
asS'ko'
p2147
(lp2148
F2.5
asS'ik'
p2149
(lp2150
F0
asS'dik_dv_'
p2151
(lp2152
F0
asg50
F8
ssS'ca'
p2153
(dp2154
S'eca'
p2155
(lp2156
F132.45793416370091
asS'dica_dv_'
p2157
(lp2158
F0
asS'ica'
p2159
(lp2160
F0
asS'cai'
p2161
(lp2162
F5.0000000000000002e-05
asS'cao'
p2163
(lp2164
F2
asg50
F247
sssg74
S'zipC3'
p2165
sg76
(lp2166
F3.3941125496954276
asg78
I1
sg79
(dp2167
S'pas'
p2168
(dp2169
S'i'
(lp2170
F0
asS'e'
(lp2171
F-60
asS'g'
(lp2172
F9.620500424306768e-05
assS'Kv4s'
p2173
(dp2174
S'm'
(lp2175
F0
asS'h'
(lp2176
F0
asS'iKv4s'
p2177
(lp2178
F0
asS'gmax'
p2179
(lp2180
F0.0084852813742385697
assS'Kv4f'
p2181
(dp2182
S'iKv4f'
p2183
(lp2184
F0
asS'h'
(lp2185
F0
asS'm'
(lp2186
F0
asS'gmax'
p2187
(lp2188
F0.0056568542494923784
assS'HCN2'
p2189
(dp2190
S'ih'
p2191
(lp2192
F0
asS'iHCN'
p2193
(lp2194
F0
asS'm'
(lp2195
F0
asS'gmax'
p2196
(lp2197
F0.00035355339059327365
assS'KCNQ'
p2198
(dp2199
S'iKCNQ'
p2200
(lp2201
F0
asS'm'
(lp2202
F0
asS'gmax'
p2203
(lp2204
F0.00028284271247461891
assS'SK'
p2205
(dp2206
S'iSK'
p2207
(lp2208
F0
asS'm'
(lp2209
F0
asS'gmax'
p2210
(lp2211
F5.6568542494923791e-05
assS'Calcium'
p2212
(dp2213
S'tau'
p2214
(lp2215
F1
asS'depth'
p2216
(lp2217
F1600000000000
asS'cai0'
p2218
(lp2219
F5.0000000000000002e-05
assS'NaP'
p2220
(dp2221
S'h'
(lp2222
F0
asS's'
(lp2223
F0
asS'm'
(lp2224
F0
asS'iNa'
p2225
(lp2226
F0
asS'gmax'
p2227
(lp2228
F0.00014354267658086913
assS'Kv2'
p2229
(dp2230
S'm'
(lp2231
F0
asS'h'
(lp2232
F0
asS'iKv2'
p2233
(lp2234
F0
asS'gmax'
p2235
(lp2236
F0.00014142135623730945
assS'Kv3'
p2237
(dp2238
S'h'
(lp2239
F0
asS'm'
(lp2240
F0
asS'iKv3'
p2241
(lp2242
F0
asS'gmax'
p2243
(lp2244
F0.0014142135623730946
assS'CaHVA'
p2245
(dp2246
S'iCaH'
p2247
(lp2248
F0
asS'm'
(lp2249
F0
asS'gmax'
p2250
(lp2251
F0.00012727922061357854
assS'NaF'
p2252
(dp2253
S'h'
(lp2254
F0
asS's'
(lp2255
F0
asS'm'
(lp2256
F0
asS'iNa'
p2257
(lp2258
F0
asS'gmax'
p2259
(lp2260
F0.049497474683058318
assS'HCN'
p2261
(dp2262
S'ih'
p2263
(lp2264
F0
asS'iHCN'
p2265
(lp2266
F0
asS'm'
(lp2267
F0
asS'gmax'
p2268
(lp2269
F0.00014142135623730945
asssg183
g184
((ltRp2270
sg186
(dp2271
sg188
F174
sg189
(dp2272
g191
(lp2273
F1.4142135623738024
asg193
F0
sg194
I11
sg195
(lp2274
sS'L'
F0.99999999999000022
sg200
F1
ssg201
S'__nrnsec_0x55f88fb544d0'
p2275
sg203
g184
((ltRp2276
sa(dp2277
g36
(dp2278
S'na'
p2279
(dp2280
S'ena'
p2281
(lp2282
F50
asS'dina_dv_'
p2283
(lp2284
F0
asS'nai'
p2285
(lp2286
F10
asS'nao'
p2287
(lp2288
F140
asS'ina'
p2289
(lp2290
F0
asg50
F8
ssS'k'
(dp2291
S'ek'
p2292
(lp2293
F-90
asS'ki'
p2294
(lp2295
F54.399999999999999
asS'ko'
p2296
(lp2297
F2.5
asS'ik'
p2298
(lp2299
F0
asS'dik_dv_'
p2300
(lp2301
F0
asg50
F8
ssS'ca'
p2302
(dp2303
S'eca'
p2304
(lp2305
F132.45793416370091
asS'dica_dv_'
p2306
(lp2307
F0
asS'ica'
p2308
(lp2309
F0
asS'cai'
p2310
(lp2311
F5.0000000000000002e-05
asS'cao'
p2312
(lp2313
F2
asg50
F247
sssg74
S'zipA3'
p2314
sg76
(lp2315
F3.394112549695429
asg78
I1
sg79
(dp2316
S'pas'
p2317
(dp2318
S'i'
(lp2319
F0
asS'e'
(lp2320
F-60
asS'g'
(lp2321
F9.6205004243067707e-05
assS'Kv4s'
p2322
(dp2323
S'm'
(lp2324
F0
asS'h'
(lp2325
F0
asS'iKv4s'
p2326
(lp2327
F0
asS'gmax'
p2328
(lp2329
F0.0084852813742385715
assS'Kv4f'
p2330
(dp2331
S'iKv4f'
p2332
(lp2333
F0
asS'h'
(lp2334
F0
asS'm'
(lp2335
F0
asS'gmax'
p2336
(lp2337
F0.0056568542494923801
assS'HCN2'
p2338
(dp2339
S'ih'
p2340
(lp2341
F0
asS'iHCN'
p2342
(lp2343
F0
asS'm'
(lp2344
F0
asS'gmax'
p2345
(lp2346
F0.00035355339059327376
assS'KCNQ'
p2347
(dp2348
S'iKCNQ'
p2349
(lp2350
F0
asS'm'
(lp2351
F0
asS'gmax'
p2352
(lp2353
F0.00028284271247461902
assS'SK'
p2354
(dp2355
S'iSK'
p2356
(lp2357
F0
asS'm'
(lp2358
F0
asS'gmax'
p2359
(lp2360
F5.6568542494923811e-05
assS'Calcium'
p2361
(dp2362
S'tau'
p2363
(lp2364
F1
asS'depth'
p2365
(lp2366
F1600000000000
asS'cai0'
p2367
(lp2368
F5.0000000000000002e-05
assS'NaP'
p2369
(dp2370
S'h'
(lp2371
F0
asS's'
(lp2372
F0
asS'm'
(lp2373
F0
asS'iNa'
p2374
(lp2375
F0
asS'gmax'
p2376
(lp2377
F0.00014354267658086919
assS'Kv2'
p2378
(dp2379
S'm'
(lp2380
F0
asS'h'
(lp2381
F0
asS'iKv2'
p2382
(lp2383
F0
asS'gmax'
p2384
(lp2385
F0.00014142135623730951
assS'Kv3'
p2386
(dp2387
S'h'
(lp2388
F0
asS'm'
(lp2389
F0
asS'iKv3'
p2390
(lp2391
F0
asS'gmax'
p2392
(lp2393
F0.001414213562373095
assS'CaHVA'
p2394
(dp2395
S'iCaH'
p2396
(lp2397
F0
asS'm'
(lp2398
F0
asS'gmax'
p2399
(lp2400
F6.3639610306789283e-05
assS'NaF'
p2401
(dp2402
S'h'
(lp2403
F0
asS's'
(lp2404
F0
asS'm'
(lp2405
F0
asS'iNa'
p2406
(lp2407
F0
asS'gmax'
p2408
(lp2409
F0.049497474683058346
assS'HCN'
p2410
(dp2411
S'ih'
p2412
(lp2413
F0
asS'iHCN'
p2414
(lp2415
F0
asS'm'
(lp2416
F0
asS'gmax'
p2417
(lp2418
F0.00014142135623730951
asssg183
g184
((ltRp2419
sg186
(dp2420
sg188
F174
sg189
(dp2421
g191
(lp2422
F1.4142135623738021
asg193
F0
sg194
I13
sg195
(lp2423
sS'L'
F0.99999999999799993
sg200
F1
ssg201
S'__nrnsec_0x55f88fb541d0'
p2424
sg203
g184
((ltRp2425
sa(dp2426
g36
(dp2427
S'na'
p2428
(dp2429
S'ena'
p2430
(lp2431
F50
asS'dina_dv_'
p2432
(lp2433
F0
asS'nai'
p2434
(lp2435
F10
asS'nao'
p2436
(lp2437
F140
asS'ina'
p2438
(lp2439
F0
asg50
F8
ssS'k'
(dp2440
S'ek'
p2441
(lp2442
F-90
asS'ki'
p2443
(lp2444
F54.399999999999999
asS'ko'
p2445
(lp2446
F2.5
asS'ik'
p2447
(lp2448
F0
asS'dik_dv_'
p2449
(lp2450
F0
asg50
F8
ssS'ca'
p2451
(dp2452
S'eca'
p2453
(lp2454
F132.45793416370091
asS'dica_dv_'
p2455
(lp2456
F0
asS'ica'
p2457
(lp2458
F0
asS'cai'
p2459
(lp2460
F5.0000000000000002e-05
asS'cao'
p2461
(lp2462
F2
asg50
F247
sssg74
S'zipC4'
p2463
sg76
(lp2464
F3.3941125496954276
asg78
I1
sg79
(dp2465
S'pas'
p2466
(dp2467
S'i'
(lp2468
F0
asS'e'
(lp2469
F-60
asS'g'
(lp2470
F9.6205004243067667e-05
assS'Kv4s'
p2471
(dp2472
S'm'
(lp2473
F0
asS'h'
(lp2474
F0
asS'iKv4s'
p2475
(lp2476
F0
asS'gmax'
p2477
(lp2478
F0.0084852813742385697
assS'Kv4f'
p2479
(dp2480
S'iKv4f'
p2481
(lp2482
F0
asS'h'
(lp2483
F0
asS'm'
(lp2484
F0
asS'gmax'
p2485
(lp2486
F0.0056568542494923792
assS'HCN2'
p2487
(dp2488
S'ih'
p2489
(lp2490
F0
asS'iHCN'
p2491
(lp2492
F0
asS'm'
(lp2493
F0
asS'gmax'
p2494
(lp2495
F0.0003535533905932737
assS'KCNQ'
p2496
(dp2497
S'iKCNQ'
p2498
(lp2499
F0
asS'm'
(lp2500
F0
asS'gmax'
p2501
(lp2502
F0.00028284271247461891
assS'SK'
p2503
(dp2504
S'iSK'
p2505
(lp2506
F0
asS'm'
(lp2507
F0
asS'gmax'
p2508
(lp2509
F5.6568542494923784e-05
assS'Calcium'
p2510
(dp2511
S'tau'
p2512
(lp2513
F1
asS'depth'
p2514
(lp2515
F1600000000000
asS'cai0'
p2516
(lp2517
F5.0000000000000002e-05
assS'NaP'
p2518
(dp2519
S'h'
(lp2520
F0
asS's'
(lp2521
F0
asS'm'
(lp2522
F0
asS'iNa'
p2523
(lp2524
F0
asS'gmax'
p2525
(lp2526
F0.0001435426765808691
assS'Kv2'
p2527
(dp2528
S'm'
(lp2529
F0
asS'h'
(lp2530
F0
asS'iKv2'
p2531
(lp2532
F0
asS'gmax'
p2533
(lp2534
F0.00014142135623730945
assS'Kv3'
p2535
(dp2536
S'h'
(lp2537
F0
asS'm'
(lp2538
F0
asS'iKv3'
p2539
(lp2540
F0
asS'gmax'
p2541
(lp2542
F0.0014142135623730948
assS'CaHVA'
p2543
(dp2544
S'iCaH'
p2545
(lp2546
F0
asS'm'
(lp2547
F0
asS'gmax'
p2548
(lp2549
F0.00012727922061357848
assS'NaF'
p2550
(dp2551
S'h'
(lp2552
F0
asS's'
(lp2553
F0
asS'm'
(lp2554
F0
asS'iNa'
p2555
(lp2556
F0
asS'gmax'
p2557
(lp2558
F0.049497474683058318
assS'HCN'
p2559
(dp2560
S'ih'
p2561
(lp2562
F0
asS'iHCN'
p2563
(lp2564
F0
asS'm'
(lp2565
F0
asS'gmax'
p2566
(lp2567
F0.00014142135623730945
asssg183
g184
((ltRp2568
sg186
(dp2569
sg188
F174
sg189
(dp2570
g191
(lp2571
F1.4142135623738026
asg193
F0
sg194
I14
sg195
(lp2572
sS'L'
F0.99999999999599998
sg200
F1
ssg201
S'__nrnsec_0x55f88fb54530'
p2573
sg203
g184
((ltRp2574
sa(dp2575
g36
(dp2576
S'na'
p2577
(dp2578
S'ena'
p2579
(lp2580
F50
asS'dina_dv_'
p2581
(lp2582
F0
asS'nai'
p2583
(lp2584
F10
asS'nao'
p2585
(lp2586
F140
asS'ina'
p2587
(lp2588
F0
asg50
F8
ssS'k'
(dp2589
S'ek'
p2590
(lp2591
F-90
asS'ki'
p2592
(lp2593
F54.399999999999999
asS'ko'
p2594
(lp2595
F2.5
asS'ik'
p2596
(lp2597
F0
asS'dik_dv_'
p2598
(lp2599
F0
asg50
F8
ssS'ca'
p2600
(dp2601
S'eca'
p2602
(lp2603
F132.45793416370091
asS'dica_dv_'
p2604
(lp2605
F0
asS'ica'
p2606
(lp2607
F0
asS'cai'
p2608
(lp2609
F5.0000000000000002e-05
asS'cao'
p2610
(lp2611
F2
asg50
F247
sssg74
S'zipA4'
p2612
sg76
(lp2613
F3.394112549695429
asg78
I1
sg79
(dp2614
S'pas'
p2615
(dp2616
S'i'
(lp2617
F0
asS'e'
(lp2618
F-60
asS'g'
(lp2619
F9.6205004243067707e-05
assS'Kv4s'
p2620
(dp2621
S'm'
(lp2622
F0
asS'h'
(lp2623
F0
asS'iKv4s'
p2624
(lp2625
F0
asS'gmax'
p2626
(lp2627
F0.0084852813742385715
assS'Kv4f'
p2628
(dp2629
S'iKv4f'
p2630
(lp2631
F0
asS'h'
(lp2632
F0
asS'm'
(lp2633
F0
asS'gmax'
p2634
(lp2635
F0.0056568542494923801
assS'HCN2'
p2636
(dp2637
S'ih'
p2638
(lp2639
F0
asS'iHCN'
p2640
(lp2641
F0
asS'm'
(lp2642
F0
asS'gmax'
p2643
(lp2644
F0.00035355339059327376
assS'KCNQ'
p2645
(dp2646
S'iKCNQ'
p2647
(lp2648
F0
asS'm'
(lp2649
F0
asS'gmax'
p2650
(lp2651
F0.00028284271247461902
assS'SK'
p2652
(dp2653
S'iSK'
p2654
(lp2655
F0
asS'm'
(lp2656
F0
asS'gmax'
p2657
(lp2658
F5.6568542494923811e-05
assS'Calcium'
p2659
(dp2660
S'tau'
p2661
(lp2662
F1
asS'depth'
p2663
(lp2664
F1600000000000
asS'cai0'
p2665
(lp2666
F5.0000000000000002e-05
assS'NaP'
p2667
(dp2668
S'h'
(lp2669
F0
asS's'
(lp2670
F0
asS'm'
(lp2671
F0
asS'iNa'
p2672
(lp2673
F0
asS'gmax'
p2674
(lp2675
F0.00014354267658086919
assS'Kv2'
p2676
(dp2677
S'm'
(lp2678
F0
asS'h'
(lp2679
F0
asS'iKv2'
p2680
(lp2681
F0
asS'gmax'
p2682
(lp2683
F0.00014142135623730951
assS'Kv3'
p2684
(dp2685
S'h'
(lp2686
F0
asS'm'
(lp2687
F0
asS'iKv3'
p2688
(lp2689
F0
asS'gmax'
p2690
(lp2691
F0.001414213562373095
assS'CaHVA'
p2692
(dp2693
S'iCaH'
p2694
(lp2695
F0
asS'm'
(lp2696
F0
asS'gmax'
p2697
(lp2698
F6.3639610306789283e-05
assS'NaF'
p2699
(dp2700
S'h'
(lp2701
F0
asS's'
(lp2702
F0
asS'm'
(lp2703
F0
asS'iNa'
p2704
(lp2705
F0
asS'gmax'
p2706
(lp2707
F0.049497474683058346
assS'HCN'
p2708
(dp2709
S'ih'
p2710
(lp2711
F0
asS'iHCN'
p2712
(lp2713
F0
asS'm'
(lp2714
F0
asS'gmax'
p2715
(lp2716
F0.00014142135623730951
asssg183
g184
((ltRp2717
sg186
(dp2718
sg188
F174
sg189
(dp2719
g191
(lp2720
F1.4142135623738021
asg193
F0
sg194
I15
sg195
(lp2721
sS'L'
F0.99999999999799993
sg200
F1
ssg201
S'__nrnsec_0x55f88fb54230'
p2722
sg203
g184
((ltRp2723
sa(dp2724
g36
(dp2725
S'na'
p2726
(dp2727
S'ena'
p2728
(lp2729
F50
asS'dina_dv_'
p2730
(lp2731
F0
asS'nai'
p2732
(lp2733
F10
asS'nao'
p2734
(lp2735
F140
asS'ina'
p2736
(lp2737
F0
asg50
F8
ssS'k'
(dp2738
S'ek'
p2739
(lp2740
F-90
asS'ki'
p2741
(lp2742
F54.399999999999999
asS'ko'
p2743
(lp2744
F2.5
asS'ik'
p2745
(lp2746
F0
asS'dik_dv_'
p2747
(lp2748
F0
asg50
F8
ssS'ca'
p2749
(dp2750
S'eca'
p2751
(lp2752
F132.45793416370091
asS'dica_dv_'
p2753
(lp2754
F0
asS'ica'
p2755
(lp2756
F0
asS'cai'
p2757
(lp2758
F5.0000000000000002e-05
asS'cao'
p2759
(lp2760
F2
asg50
F247
sssg74
S'zipC5'
p2761
sg76
(lp2762
F3.3941125496954276
asg78
I1
sg79
(dp2763
S'pas'
p2764
(dp2765
S'i'
(lp2766
F0
asS'e'
(lp2767
F-60
asS'g'
(lp2768
F9.620500424306768e-05
assS'Kv4s'
p2769
(dp2770
S'm'
(lp2771
F0
asS'h'
(lp2772
F0
asS'iKv4s'
p2773
(lp2774
F0
asS'gmax'
p2775
(lp2776
F0.0084852813742385697
assS'Kv4f'
p2777
(dp2778
S'iKv4f'
p2779
(lp2780
F0
asS'h'
(lp2781
F0
asS'm'
(lp2782
F0
asS'gmax'
p2783
(lp2784
F0.0056568542494923801
assS'HCN2'
p2785
(dp2786
S'ih'
p2787
(lp2788
F0
asS'iHCN'
p2789
(lp2790
F0
asS'm'
(lp2791
F0
asS'gmax'
p2792
(lp2793
F0.00035355339059327376
assS'KCNQ'
p2794
(dp2795
S'iKCNQ'
p2796
(lp2797
F0
asS'm'
(lp2798
F0
asS'gmax'
p2799
(lp2800
F0.00028284271247461896
assS'SK'
p2801
(dp2802
S'iSK'
p2803
(lp2804
F0
asS'm'
(lp2805
F0
asS'gmax'
p2806
(lp2807
F5.6568542494923805e-05
assS'Calcium'
p2808
(dp2809
S'tau'
p2810
(lp2811
F1
asS'depth'
p2812
(lp2813
F1600000000000
asS'cai0'
p2814
(lp2815
F5.0000000000000002e-05
assS'NaP'
p2816
(dp2817
S'h'
(lp2818
F0
asS's'
(lp2819
F0
asS'm'
(lp2820
F0
asS'iNa'
p2821
(lp2822
F0
asS'gmax'
p2823
(lp2824
F0.00014354267658086913
assS'Kv2'
p2825
(dp2826
S'm'
(lp2827
F0
asS'h'
(lp2828
F0
asS'iKv2'
p2829
(lp2830
F0
asS'gmax'
p2831
(lp2832
F0.00014142135623730948
assS'Kv3'
p2833
(dp2834
S'h'
(lp2835
F0
asS'm'
(lp2836
F0
asS'iKv3'
p2837
(lp2838
F0
asS'gmax'
p2839
(lp2840
F0.001414213562373095
assS'CaHVA'
p2841
(dp2842
S'iCaH'
p2843
(lp2844
F0
asS'm'
(lp2845
F0
asS'gmax'
p2846
(lp2847
F0.00012727922061357851
assS'NaF'
p2848
(dp2849
S'h'
(lp2850
F0
asS's'
(lp2851
F0
asS'm'
(lp2852
F0
asS'iNa'
p2853
(lp2854
F0
asS'gmax'
p2855
(lp2856
F0.049497474683058325
assS'HCN'
p2857
(dp2858
S'ih'
p2859
(lp2860
F0
asS'iHCN'
p2861
(lp2862
F0
asS'm'
(lp2863
F0
asS'gmax'
p2864
(lp2865
F0.00014142135623730948
asssg183
g184
((ltRp2866
sg186
(dp2867
sg188
F174
sg189
(dp2868
g191
(lp2869
F1.4142135623738021
asg193
F0
sg194
I16
sg195
(lp2870
sS'L'
F0.99999999999800004
sg200
F1
ssg201
S'__nrnsec_0x55f88fb54590'
p2871
sg203
g184
((ltRp2872
sasS'description'
p2873
S"Cell reduced using algorithm ReductionMethod.BushSejnowski implemented in class <class 'bgcellmodels.cersei.collapse.tapered_folding.TaperedFolder'>, from 141 to 19 compartments."
p2874
sS'metadata'
p2875
Ns.