(dp1
S'cell_sectionlists'
p2
(dp3
S'basal'
p4
(lp5
S'GPe[0].dend[0]'
p6
aS'GPe[0].dend[11]'
p7
aS'GPe[0].dend[22]'
p8
asS'apical'
p9
(lp10
sS'axonal'
p11
(lp12
S'GPe[0].axon[0]'
p13
asS'somatic'
p14
(lp15
S'GPe[0].soma[0]'
p16
assS'section_data'
p17
(lp18
(dp19
S'ions'
p20
(dp21
S'na'
p22
(dp23
S'ena'
p24
(lp25
F50
asS'dina_dv_'
p26
(lp27
F0
asS'nai'
p28
(lp29
F10
asS'nao'
p30
(lp31
F140
asS'ina'
p32
(lp33
F0
asS'ion_style'
p34
F8
ssS'k'
(dp35
S'ek'
p36
(lp37
F-90
asS'ki'
p38
(lp39
F54.399999999999999
asS'ko'
p40
(lp41
F2.5
asS'ik'
p42
(lp43
F0
asS'dik_dv_'
p44
(lp45
F0
asg34
F8
ssS'ca'
p46
(dp47
S'eca'
p48
(lp49
F132.45793416370091
asS'dica_dv_'
p50
(lp51
F0
asS'ica'
p52
(lp53
F0
asS'cai'
p54
(lp55
F5.0000000000000002e-05
asS'cao'
p56
(lp57
F2
asg34
F247
sssS'name'
p58
S'GPe[0].soma[0]'
p59
sS'cm'
p60
(lp61
F2.3999999999999999
asS'nseg'
p62
I1
sS'density_mechs'
p63
(dp64
S'pas'
p65
(dp66
S'i'
(lp67
F0
asS'e'
(lp68
F-60
asS'g'
(lp69
F6.802721088435374e-05
assS'Kv4s'
p70
(dp71
S'm'
(lp72
F0
asS'h'
(lp73
F0
asS'iKv4s'
p74
(lp75
F0
asS'gmax'
p76
(lp77
F0.0030000000000000001
assS'Kv4f'
p78
(dp79
S'iKv4f'
p80
(lp81
F0
asS'h'
(lp82
F0
asS'm'
(lp83
F0
asS'gmax'
p84
(lp85
F0.002
assS'HCN2'
p86
(dp87
S'ih'
p88
(lp89
F0
asS'iHCN'
p90
(lp91
F0
asS'm'
(lp92
F0
asS'gmax'
p93
(lp94
F0.00025000000000000001
assS'KCNQ'
p95
(dp96
S'iKCNQ'
p97
(lp98
F0
asS'm'
(lp99
F0
asS'gmax'
p100
(lp101
F0.00020000000000000001
assS'SK'
p102
(dp103
S'iSK'
p104
(lp105
F0
asS'm'
(lp106
F0
asS'gmax'
p107
(lp108
F0.0064000000000000003
assS'Calcium'
p109
(dp110
S'tau'
p111
(lp112
F1
asS'depth'
p113
(lp114
F1600000000000
asS'cai0'
p115
(lp116
F5.0000000000000002e-05
assS'NaP'
p117
(dp118
S'h'
(lp119
F0
asS's'
(lp120
F0
asS'm'
(lp121
F0
asS'iNa'
p122
(lp123
F0
asS'gmax'
p124
(lp125
F0.0001015
assS'Kv2'
p126
(dp127
S'm'
(lp128
F0
asS'h'
(lp129
F0
asS'iKv2'
p130
(lp131
F0
asS'gmax'
p132
(lp133
F0.0001
assS'Kv3'
p134
(dp135
S'h'
(lp136
F0
asS'm'
(lp137
F0
asS'iKv3'
p138
(lp139
F0
asS'gmax'
p140
(lp141
F0.001
assS'CaHVA'
p142
(dp143
S'iCaH'
p144
(lp145
F0
asS'm'
(lp146
F0
asS'gmax'
p147
(lp148
F3.0000000000000001e-05
assS'NaF'
p149
(dp150
S'h'
(lp151
F0
asS's'
(lp152
F0
asS'm'
(lp153
F0
asS'iNa'
p154
(lp155
F0
asS'gmax'
p156
(lp157
F0.035000000000000003
assS'HCN'
p158
(dp159
S'ih'
p160
(lp161
F0
asS'iHCN'
p162
(lp163
F0
asS'm'
(lp164
F0
asS'gmax'
p165
(lp166
F0.0001
asssS'regions'
p167
c__builtin__
set
p168
((ltRp169
sS'point_processes'
p170
(dp171
sS'Ra'
p172
F174
sS'morphology'
p173
(dp174
S'diam'
p175
(lp176
F1
asS'section_orientation'
p177
F0
sS'parent_idx'
p178
I-1
sS'pts3d'
p179
(lp180
(F-6.6999998092651367
F0
F0
F1
tp181
a(F-6.1999998092651367
F0
F0
F1
tp182
a(F-5.6999998092651367
F0
F0
F1
tp183
asS'L'
F1
sS'parent_loc'
p184
I-1
ssS'hoc_internal_name'
p185
S'__nrnsec_0x55d4ce39ac70'
p186
sS'species'
p187
g168
((ltRp188
sa(dp189
g20
(dp190
S'na'
p191
(dp192
S'ena'
p193
(lp194
F50
aF50
aF50
asS'dina_dv_'
p195
(lp196
F0
aF0
aF0
asS'nai'
p197
(lp198
F10
aF10
aF10
asS'nao'
p199
(lp200
F140
aF140
aF140
asS'ina'
p201
(lp202
F0
aF0
aF0
asg34
F8
ssS'k'
(dp203
S'ek'
p204
(lp205
F-90
aF-90
aF-90
asS'ki'
p206
(lp207
F54.399999999999999
aF54.399999999999999
aF54.399999999999999
asS'ko'
p208
(lp209
F2.5
aF2.5
aF2.5
asS'ik'
p210
(lp211
F0
aF0
aF0
asS'dik_dv_'
p212
(lp213
F0
aF0
aF0
asg34
F8
ssS'ca'
p214
(dp215
S'eca'
p216
(lp217
F132.45793416370091
aF132.45793416370091
aF132.45793416370091
asS'dica_dv_'
p218
(lp219
F0
aF0
aF0
asS'ica'
p220
(lp221
F0
aF0
aF0
asS'cai'
p222
(lp223
F5.0000000000000002e-05
aF5.0000000000000002e-05
aF5.0000000000000002e-05
asS'cao'
p224
(lp225
F2
aF2
aF2
asg34
F247
sssg58
S'GPe[0].dend[22]'
p226
sg60
(lp227
F2.3999999999999999
aF2.3999999999999999
aF2.3999999999999999
asg62
I3
sg63
(dp228
S'pas'
p229
(dp230
S'i'
(lp231
F0
aF0
aF0
asS'e'
(lp232
F-60
aF-60
aF-60
asS'g'
(lp233
F6.802721088435374e-05
aF6.802721088435374e-05
aF6.802721088435374e-05
assS'Kv4s'
p234
(dp235
S'm'
(lp236
F0
aF0
aF0
asS'h'
(lp237
F0
aF0
aF0
asS'iKv4s'
p238
(lp239
F0
aF0
aF0
asS'gmax'
p240
(lp241
F0.0060000000000000001
aF0.0060000000000000001
aF0.0060000000000000001
assS'Kv4f'
p242
(dp243
S'iKv4f'
p244
(lp245
F0
aF0
aF0
asS'h'
(lp246
F0
aF0
aF0
asS'm'
(lp247
F0
aF0
aF0
asS'gmax'
p248
(lp249
F0.0040000000000000001
aF0.0040000000000000001
aF0.0040000000000000001
assS'HCN2'
p250
(dp251
S'ih'
p252
(lp253
F0
aF0
aF0
asS'iHCN'
p254
(lp255
F0
aF0
aF0
asS'm'
(lp256
F0
aF0
aF0
asS'gmax'
p257
(lp258
F0.00025000000000000001
aF0.00025000000000000001
aF0.00025000000000000001
assS'KCNQ'
p259
(dp260
S'iKCNQ'
p261
(lp262
F0
aF0
aF0
asS'm'
(lp263
F0
aF0
aF0
asS'gmax'
p264
(lp265
F0.00020000000000000001
aF0.00020000000000000001
aF0.00020000000000000001
assS'SK'
p266
(dp267
S'iSK'
p268
(lp269
F0
aF0
aF0
asS'm'
(lp270
F0
aF0
aF0
asS'gmax'
p271
(lp272
F4.0000000000000003e-05
aF4.0000000000000003e-05
aF4.0000000000000003e-05
assS'Calcium'
p273
(dp274
S'tau'
p275
(lp276
F1
aF1
aF1
asS'depth'
p277
(lp278
F1600000000000
aF1600000000000
aF1600000000000
asS'cai0'
p279
(lp280
F5.0000000000000002e-05
aF5.0000000000000002e-05
aF5.0000000000000002e-05
assS'NaP'
p281
(dp282
S'h'
(lp283
F0
aF0
aF0
asS's'
(lp284
F0
aF0
aF0
asS'm'
(lp285
F0
aF0
aF0
asS'iNa'
p286
(lp287
F0
aF0
aF0
asS'gmax'
p288
(lp289
F0.0001015
aF0.0001015
aF0.0001015
assS'Kv2'
p290
(dp291
S'm'
(lp292
F0
aF0
aF0
asS'h'
(lp293
F0
aF0
aF0
asS'iKv2'
p294
(lp295
F0
aF0
aF0
asS'gmax'
p296
(lp297
F0.0001
aF0.0001
aF0.0001
assS'Kv3'
p298
(dp299
S'h'
(lp300
F0
aF0
aF0
asS'm'
(lp301
F0
aF0
aF0
asS'iKv3'
p302
(lp303
F0
aF0
aF0
asS'gmax'
p304
(lp305
F0.001
aF0.001
aF0.001
assS'CaHVA'
p306
(dp307
S'iCaH'
p308
(lp309
F0
aF0
aF0
asS'm'
(lp310
F0
aF0
aF0
asS'gmax'
p311
(lp312
F3.0000000000000001e-05
aF3.0000000000000001e-05
aF3.0000000000000001e-05
assS'NaF'
p313
(dp314
S'h'
(lp315
F0
aF0
aF0
asS's'
(lp316
F0
aF0
aF0
asS'm'
(lp317
F0
aF0
aF0
asS'iNa'
p318
(lp319
F0
aF0
aF0
asS'gmax'
p320
(lp321
F0.035000000000000003
aF0.035000000000000003
aF0.035000000000000003
assS'HCN'
p322
(dp323
S'ih'
p324
(lp325
F0
aF0
aF0
asS'iHCN'
p326
(lp327
F0
aF0
aF0
asS'm'
(lp328
F0
aF0
aF0
asS'gmax'
p329
(lp330
F0.0001
aF0.0001
aF0.0001
asssg167
g168
((ltRp331
sg170
(dp332
sg172
F174
sg173
(dp333
g175
(lp334
F1
aF1
aF1
asg177
F0
sg178
I0
sg179
(lp335
(F0
F0
F0
F1
tp336
a(F-0.0086359027773141861
F-0.11578992754220963
F0.075379796326160431
F1
tp337
a(F-0.13905934989452362
F-0.15926440060138702
F0.12077154219150543
F1
tp338
a(F-0.18189473450183868
F-0.3065335750579834
F0.12077154219150543
F1
tp339
a(F-0.27995401620864868
F-0.40338024497032166
F0.17737194895744324
F1
tp340
a(F-0.37345775961875916
F-0.47245106101036072
F0.22831885516643524
F1
tp341
a(F-0.46212732791900635
F-0.58412790298461914
F0.23098991811275482
F1
tp342
a(F-0.5803753137588501
F-0.66611158847808838
F0.24790121614933014
F1
tp343
asS'L'
F1
sg184
F0.5
ssg185
S'__nrnsec_0x55d4ce39b570'
p344
sg187
g168
((ltRp345
sa(dp346
g20
(dp347
S'na'
p348
(dp349
S'ena'
p350
(lp351
F50
aF50
aF50
aF50
aF50
aF50
aF50
aF50
aF50
asS'dina_dv_'
p352
(lp353
F0
aF0
aF0
aF0
aF0
aF0
aF0
aF0
aF0
asS'nai'
p354
(lp355
F10
aF10
aF10
aF10
aF10
aF10
aF10
aF10
aF10
asS'nao'
p356
(lp357
F140
aF140
aF140
aF140
aF140
aF140
aF140
aF140
aF140
asS'ina'
p358
(lp359
F0
aF0
aF0
aF0
aF0
aF0
aF0
aF0
aF0
asg34
F8
ssS'k'
(dp360
S'ek'
p361
(lp362
F-90
aF-90
aF-90
aF-90
aF-90
aF-90
aF-90
aF-90
aF-90
asS'ki'
p363
(lp364
F54.399999999999999
aF54.399999999999999
aF54.399999999999999
aF54.399999999999999
aF54.399999999999999
aF54.399999999999999
aF54.399999999999999
aF54.399999999999999
aF54.399999999999999
asS'ko'
p365
(lp366
F2.5
aF2.5
aF2.5
aF2.5
aF2.5
aF2.5
aF2.5
aF2.5
aF2.5
asS'ik'
p367
(lp368
F0
aF0
aF0
aF0
aF0
aF0
aF0
aF0
aF0
asS'dik_dv_'
p369
(lp370
F0
aF0
aF0
aF0
aF0
aF0
aF0
aF0
aF0
asg34
F8
ssS'ca'
p371
(dp372
S'eca'
p373
(lp374
F132.45793416370091
aF132.45793416370091
aF132.45793416370091
aF132.45793416370091
aF132.45793416370091
aF132.45793416370091
aF132.45793416370091
aF132.45793416370091
aF132.45793416370091
asS'dica_dv_'
p375
(lp376
F0
aF0
aF0
aF0
aF0
aF0
aF0
aF0
aF0
asS'ica'
p377
(lp378
F0
aF0
aF0
aF0
aF0
aF0
aF0
aF0
aF0
asS'cai'
p379
(lp380
F5.0000000000000002e-05
aF5.0000000000000002e-05
aF5.0000000000000002e-05
aF5.0000000000000002e-05
aF5.0000000000000002e-05
aF5.0000000000000002e-05
aF5.0000000000000002e-05
aF5.0000000000000002e-05
aF5.0000000000000002e-05
asS'cao'
p381
(lp382
F2
aF2
aF2
aF2
aF2
aF2
aF2
aF2
aF2
asg34
F247
sssg58
S'GPe[0].dend[11]'
p383
sg60
(lp384
F2.3999999999999999
aF2.3999999999999999
aF2.3999999999999999
aF2.3999999999999999
aF2.3999999999999999
aF2.3999999999999999
aF2.3999999999999999
aF2.3999999999999999
aF2.3999999999999999
asg62
I9
sg63
(dp385
S'pas'
p386
(dp387
S'i'
(lp388
F0
aF0
aF0
aF0
aF0
aF0
aF0
aF0
aF0
asS'e'
(lp389
F-60
aF-60
aF-60
aF-60
aF-60
aF-60
aF-60
aF-60
aF-60
asS'g'
(lp390
F6.802721088435374e-05
aF6.802721088435374e-05
aF6.802721088435374e-05
aF6.802721088435374e-05
aF6.802721088435374e-05
aF6.802721088435374e-05
aF6.802721088435374e-05
aF6.802721088435374e-05
aF6.802721088435374e-05
assS'Kv4s'
p391
(dp392
S'm'
(lp393
F0
aF0
aF0
aF0
aF0
aF0
aF0
aF0
aF0
asS'h'
(lp394
F0
aF0
aF0
aF0
aF0
aF0
aF0
aF0
aF0
asS'iKv4s'
p395
(lp396
F0
aF0
aF0
aF0
aF0
aF0
aF0
aF0
aF0
asS'gmax'
p397
(lp398
F0.0060000000000000001
aF0.0060000000000000001
aF0.0060000000000000001
aF0.0060000000000000001
aF0.0060000000000000001
aF0.0060000000000000001
aF0.0060000000000000001
aF0.0060000000000000001
aF0.0060000000000000001
assS'Kv4f'
p399
(dp400
S'iKv4f'
p401
(lp402
F0
aF0
aF0
aF0
aF0
aF0
aF0
aF0
aF0
asS'h'
(lp403
F0
aF0
aF0
aF0
aF0
aF0
aF0
aF0
aF0
asS'm'
(lp404
F0
aF0
aF0
aF0
aF0
aF0
aF0
aF0
aF0
asS'gmax'
p405
(lp406
F0.0040000000000000001
aF0.0040000000000000001
aF0.0040000000000000001
aF0.0040000000000000001
aF0.0040000000000000001
aF0.0040000000000000001
aF0.0040000000000000001
aF0.0040000000000000001
aF0.0040000000000000001
assS'HCN2'
p407
(dp408
S'ih'
p409
(lp410
F0
aF0
aF0
aF0
aF0
aF0
aF0
aF0
aF0
asS'iHCN'
p411
(lp412
F0
aF0
aF0
aF0
aF0
aF0
aF0
aF0
aF0
asS'm'
(lp413
F0
aF0
aF0
aF0
aF0
aF0
aF0
aF0
aF0
asS'gmax'
p414
(lp415
F0.00025000000000000001
aF0.00025000000000000001
aF0.00025000000000000001
aF0.00025000000000000001
aF0.00025000000000000001
aF0.00025000000000000001
aF0.00025000000000000001
aF0.00025000000000000001
aF0.00025000000000000001
assS'KCNQ'
p416
(dp417
S'iKCNQ'
p418
(lp419
F0
aF0
aF0
aF0
aF0
aF0
aF0
aF0
aF0
asS'm'
(lp420
F0
aF0
aF0
aF0
aF0
aF0
aF0
aF0
aF0
asS'gmax'
p421
(lp422
F0.00020000000000000001
aF0.00020000000000000001
aF0.00020000000000000001
aF0.00020000000000000001
aF0.00020000000000000001
aF0.00020000000000000001
aF0.00020000000000000001
aF0.00020000000000000001
aF0.00020000000000000001
assS'SK'
p423
(dp424
S'iSK'
p425
(lp426
F0
aF0
aF0
aF0
aF0
aF0
aF0
aF0
aF0
asS'm'
(lp427
F0
aF0
aF0
aF0
aF0
aF0
aF0
aF0
aF0
asS'gmax'
p428
(lp429
F4.0000000000000003e-05
aF4.0000000000000003e-05
aF4.0000000000000003e-05
aF4.0000000000000003e-05
aF4.0000000000000003e-05
aF4.0000000000000003e-05
aF4.0000000000000003e-05
aF4.0000000000000003e-05
aF4.0000000000000003e-05
assS'Calcium'
p430
(dp431
S'tau'
p432
(lp433
F1
aF1
aF1
aF1
aF1
aF1
aF1
aF1
aF1
asS'depth'
p434
(lp435
F1600000000000
aF1600000000000
aF1600000000000
aF1600000000000
aF1600000000000
aF1600000000000
aF1600000000000
aF1600000000000
aF1600000000000
asS'cai0'
p436
(lp437
F5.0000000000000002e-05
aF5.0000000000000002e-05
aF5.0000000000000002e-05
aF5.0000000000000002e-05
aF5.0000000000000002e-05
aF5.0000000000000002e-05
aF5.0000000000000002e-05
aF5.0000000000000002e-05
aF5.0000000000000002e-05
assS'NaP'
p438
(dp439
S'h'
(lp440
F0
aF0
aF0
aF0
aF0
aF0
aF0
aF0
aF0
asS's'
(lp441
F0
aF0
aF0
aF0
aF0
aF0
aF0
aF0
aF0
asS'm'
(lp442
F0
aF0
aF0
aF0
aF0
aF0
aF0
aF0
aF0
asS'iNa'
p443
(lp444
F0
aF0
aF0
aF0
aF0
aF0
aF0
aF0
aF0
asS'gmax'
p445
(lp446
F0.0001015
aF0.0001015
aF0.0001015
aF0.0001015
aF0.0001015
aF0.0001015
aF0.0001015
aF0.0001015
aF0.0001015
assS'Kv2'
p447
(dp448
S'm'
(lp449
F0
aF0
aF0
aF0
aF0
aF0
aF0
aF0
aF0
asS'h'
(lp450
F0
aF0
aF0
aF0
aF0
aF0
aF0
aF0
aF0
asS'iKv2'
p451
(lp452
F0
aF0
aF0
aF0
aF0
aF0
aF0
aF0
aF0
asS'gmax'
p453
(lp454
F0.0001
aF0.0001
aF0.0001
aF0.0001
aF0.0001
aF0.0001
aF0.0001
aF0.0001
aF0.0001
assS'Kv3'
p455
(dp456
S'h'
(lp457
F0
aF0
aF0
aF0
aF0
aF0
aF0
aF0
aF0
asS'm'
(lp458
F0
aF0
aF0
aF0
aF0
aF0
aF0
aF0
aF0
asS'iKv3'
p459
(lp460
F0
aF0
aF0
aF0
aF0
aF0
aF0
aF0
aF0
asS'gmax'
p461
(lp462
F0.001
aF0.001
aF0.001
aF0.001
aF0.001
aF0.001
aF0.001
aF0.001
aF0.001
assS'CaHVA'
p463
(dp464
S'iCaH'
p465
(lp466
F0
aF0
aF0
aF0
aF0
aF0
aF0
aF0
aF0
asS'm'
(lp467
F0
aF0
aF0
aF0
aF0
aF0
aF0
aF0
aF0
asS'gmax'
p468
(lp469
F3.0000000000000001e-05
aF3.0000000000000001e-05
aF3.0000000000000001e-05
aF3.0000000000000001e-05
aF3.0000000000000001e-05
aF3.0000000000000001e-05
aF3.0000000000000001e-05
aF3.0000000000000001e-05
aF3.0000000000000001e-05
assS'NaF'
p470
(dp471
S'h'
(lp472
F0
aF0
aF0
aF0
aF0
aF0
aF0
aF0
aF0
asS's'
(lp473
F0
aF0
aF0
aF0
aF0
aF0
aF0
aF0
aF0
asS'm'
(lp474
F0
aF0
aF0
aF0
aF0
aF0
aF0
aF0
aF0
asS'iNa'
p475
(lp476
F0
aF0
aF0
aF0
aF0
aF0
aF0
aF0
aF0
asS'gmax'
p477
(lp478
F0.035000000000000003
aF0.035000000000000003
aF0.035000000000000003
aF0.035000000000000003
aF0.035000000000000003
aF0.035000000000000003
aF0.035000000000000003
aF0.035000000000000003
aF0.035000000000000003
assS'HCN'
p479
(dp480
S'ih'
p481
(lp482
F0
aF0
aF0
aF0
aF0
aF0
aF0
aF0
aF0
asS'iHCN'
p483
(lp484
F0
aF0
aF0
aF0
aF0
aF0
aF0
aF0
aF0
asS'm'
(lp485
F0
aF0
aF0
aF0
aF0
aF0
aF0
aF0
aF0
asS'gmax'
p486
(lp487
F0.0001
aF0.0001
aF0.0001
aF0.0001
aF0.0001
aF0.0001
aF0.0001
aF0.0001
aF0.0001
asssg167
g168
((ltRp488
sg170
(dp489
sg172
F174
sg173
(dp490
g175
(lp491
F1
aF1
aF1
aF1
aF1
aF1
aF1
aF1
aF1
asg177
F0
sg178
I0
sg179
(lp492
(F0
F0
F0
F1
tp493
a(F-0.031268544495105743
F-0.039754688739776611
F-0.0010306324111297727
F1
tp494
a(F-0.065653093159198761
F-0.074247725307941437
F0.0027121906168758869
F1
tp495
a(F-0.11025959253311157
F-0.088224545121192932
F0.0027121906168758869
F1
tp496
a(F-0.14741659164428711
F-0.10179152339696884
F0.0071119661442935467
F1
tp497
a(F-0.18503168225288391
F-0.097114510834217072
F0.0081968428567051888
F1
tp498
a(F-0.22183308005332947
F-0.11656392365694046
F0.0081968428567051888
F1
tp499
a(F-0.26628890633583069
F-0.11511140316724777
F0.0081968428567051888
F1
tp500
a(F-0.30759254097938538
F-0.12382657080888748
F0.012958244420588017
F1
tp501
a(F-0.34644317626953125
F-0.13950905203819275
F0.012958244420588017
F1
tp502
a(F-0.38663783669471741
F-0.13524790108203888
F0.012958244420588017
F1
tp503
a(F-0.42368635535240173
F-0.14526492357254028
F0.012958244420588017
F1
tp504
a(F-0.46689459681510925
F-0.16115836799144745
F0.012958244420588017
F1
tp505
a(F-0.4980606734752655
F-0.1876293420791626
F0.012958244420588017
F1
tp506
a(F-0.54267919063568115
F-0.1923244446516037
F0.012958244420588017
F1
tp507
a(F-0.57910090684890747
F-0.19077548384666443
F0.038470916450023651
F1
tp508
a(F-0.61789125204086304
F-0.19495828449726105
F0.060632530599832535
F1
tp509
a(F-0.66225063800811768
F-0.1969171017408371
F0.064031802117824554
F1
tp510
a(F-0.69740664958953857
F-0.21556490659713745
F0.059583812952041626
F1
tp511
a(F-0.72667419910430908
F-0.24572446942329407
F0.066297993063926697
F1
tp512
a(F-0.76545852422714233
F-0.25483140349388123
F0.06850992888212204
F1
tp513
a(F-0.80280840396881104
F-0.2811637818813324
F0.07391020655632019
F1
tp514
a(F-0.84789103269577026
F-0.27877703309059143
F0.079979486763477325
F1
tp515
a(F-0.8914065957069397
F-0.29647254943847656
F0.082691676914691925
F1
tp516
asS'L'
F1
sg184
F0.5
ssg185
S'__nrnsec_0x55d4ce39b150'
p517
sg187
g168
((ltRp518
sa(dp519
g20
(dp520
S'na'
p521
(dp522
S'ena'
p523
(lp524
F50
asS'dina_dv_'
p525
(lp526
F0
asS'nai'
p527
(lp528
F10
asS'nao'
p529
(lp530
F140
asS'ina'
p531
(lp532
F0
asg34
F8
ssS'k'
(dp533
S'ek'
p534
(lp535
F-90
asS'ki'
p536
(lp537
F54.399999999999999
asS'ko'
p538
(lp539
F2.5
asS'ik'
p540
(lp541
F0
asS'dik_dv_'
p542
(lp543
F0
asg34
F8
ssS'ca'
p544
(dp545
S'eca'
p546
(lp547
F132.45793416370091
asS'dica_dv_'
p548
(lp549
F0
asS'ica'
p550
(lp551
F0
asS'cai'
p552
(lp553
F5.0000000000000002e-05
asS'cao'
p554
(lp555
F2
asg34
F247
sssg58
S'GPe[0].dend[0]'
p556
sg60
(lp557
F2.3999999999999999
asg62
I1
sg63
(dp558
S'pas'
p559
(dp560
S'i'
(lp561
F0
asS'e'
(lp562
F-60
asS'g'
(lp563
F6.802721088435374e-05
assS'Kv4s'
p564
(dp565
S'm'
(lp566
F0
asS'h'
(lp567
F0
asS'iKv4s'
p568
(lp569
F0
asS'gmax'
p570
(lp571
F0.0060000000000000001
assS'Kv4f'
p572
(dp573
S'iKv4f'
p574
(lp575
F0
asS'h'
(lp576
F0
asS'm'
(lp577
F0
asS'gmax'
p578
(lp579
F0.0040000000000000001
assS'HCN2'
p580
(dp581
S'ih'
p582
(lp583
F0
asS'iHCN'
p584
(lp585
F0
asS'm'
(lp586
F0
asS'gmax'
p587
(lp588
F0.00025000000000000001
assS'KCNQ'
p589
(dp590
S'iKCNQ'
p591
(lp592
F0
asS'm'
(lp593
F0
asS'gmax'
p594
(lp595
F0.00020000000000000001
assS'SK'
p596
(dp597
S'iSK'
p598
(lp599
F0
asS'm'
(lp600
F0
asS'gmax'
p601
(lp602
F4.0000000000000003e-05
assS'Calcium'
p603
(dp604
S'tau'
p605
(lp606
F1
asS'depth'
p607
(lp608
F1600000000000
asS'cai0'
p609
(lp610
F5.0000000000000002e-05
assS'NaP'
p611
(dp612
S'h'
(lp613
F0
asS's'
(lp614
F0
asS'm'
(lp615
F0
asS'iNa'
p616
(lp617
F0
asS'gmax'
p618
(lp619
F0.0001015
assS'Kv2'
p620
(dp621
S'm'
(lp622
F0
asS'h'
(lp623
F0
asS'iKv2'
p624
(lp625
F0
asS'gmax'
p626
(lp627
F0.0001
assS'Kv3'
p628
(dp629
S'h'
(lp630
F0
asS'm'
(lp631
F0
asS'iKv3'
p632
(lp633
F0
asS'gmax'
p634
(lp635
F0.001
assS'CaHVA'
p636
(dp637
S'iCaH'
p638
(lp639
F0
asS'm'
(lp640
F0
asS'gmax'
p641
(lp642
F3.0000000000000001e-05
assS'NaF'
p643
(dp644
S'h'
(lp645
F0
asS's'
(lp646
F0
asS'm'
(lp647
F0
asS'iNa'
p648
(lp649
F0
asS'gmax'
p650
(lp651
F0.035000000000000003
assS'HCN'
p652
(dp653
S'ih'
p654
(lp655
F0
asS'iHCN'
p656
(lp657
F0
asS'm'
(lp658
F0
asS'gmax'
p659
(lp660
F0.0001
asssg167
g168
((ltRp661
sg170
(dp662
sg172
F174
sg173
(dp663
g175
(lp664
F1
asg177
F0
sg178
I0
sg179
(lp665
(F0
F0
F0
F1
tp666
a(F-0.13508066534996033
F0.19700303673744202
F0.13420677185058594
F1
tp667
a(F-0.18039886653423309
F0.54001057147979736
F0.11510571092367172
F1
tp668
a(F-0.34831336140632629
F0.86266857385635376
F0.0068663926795125008
F1
tp669
asS'L'
F1
sg184
F0.5
ssg185
S'__nrnsec_0x55d4ce39ad30'
p670
sg187
g168
((ltRp671
sa(dp672
g20
(dp673
S'na'
p674
(dp675
S'ena'
p676
(lp677
F50
aF50
aF50
asS'dina_dv_'
p678
(lp679
F0
aF0
aF0
asS'nai'
p680
(lp681
F10
aF10
aF10
asS'nao'
p682
(lp683
F140
aF140
aF140
asS'ina'
p684
(lp685
F0
aF0
aF0
asg34
F8
ssS'k'
(dp686
S'ek'
p687
(lp688
F-90
aF-90
aF-90
asS'ki'
p689
(lp690
F54.399999999999999
aF54.399999999999999
aF54.399999999999999
asS'ko'
p691
(lp692
F2.5
aF2.5
aF2.5
asS'ik'
p693
(lp694
F0
aF0
aF0
asS'dik_dv_'
p695
(lp696
F0
aF0
aF0
asg34
F8
sssg58
S'GPe[0].axon[0]'
p697
sg60
(lp698
F2.3999999999999999
aF2.3999999999999999
aF2.3999999999999999
asg62
I3
sg63
(dp699
S'pas'
p700
(dp701
S'i'
(lp702
F0
aF0
aF0
asS'e'
(lp703
F-60
aF-60
aF-60
asS'g'
(lp704
F6.802721088435374e-05
aF6.802721088435374e-05
aF6.802721088435374e-05
assS'Kv4s'
p705
(dp706
S'm'
(lp707
F0
aF0
aF0
asS'h'
(lp708
F0
aF0
aF0
asS'iKv4s'
p709
(lp710
F0
aF0
aF0
asS'gmax'
p711
(lp712
F0.24000000000000002
aF0.24000000000000002
aF0.24000000000000002
assS'KCNQ'
p713
(dp714
S'iKCNQ'
p715
(lp716
F0
aF0
aF0
asS'm'
(lp717
F0
aF0
aF0
asS'gmax'
p718
(lp719
F4.0000000000000003e-05
aF4.0000000000000003e-05
aF4.0000000000000003e-05
assS'Kv4f'
p720
(dp721
S'iKv4f'
p722
(lp723
F0
aF0
aF0
asS'h'
(lp724
F0
aF0
aF0
asS'm'
(lp725
F0
aF0
aF0
asS'gmax'
p726
(lp727
F0.16
aF0.16
aF0.16
assS'NaP'
p728
(dp729
S'h'
(lp730
F0
aF0
aF0
asS's'
(lp731
F0
aF0
aF0
asS'm'
(lp732
F0
aF0
aF0
asS'iNa'
p733
(lp734
F0
aF0
aF0
asS'gmax'
p735
(lp736
F0.0040000000000000001
aF0.0040000000000000001
aF0.0040000000000000001
assS'Kv2'
p737
(dp738
S'm'
(lp739
F0
aF0
aF0
asS'h'
(lp740
F0
aF0
aF0
asS'iKv2'
p741
(lp742
F0
aF0
aF0
asS'gmax'
p743
(lp744
F0.064000000000000001
aF0.064000000000000001
aF0.064000000000000001
assS'Kv3'
p745
(dp746
S'h'
(lp747
F0
aF0
aF0
asS'm'
(lp748
F0
aF0
aF0
asS'iKv3'
p749
(lp750
F0
aF0
aF0
asS'gmax'
p751
(lp752
F0.128
aF0.128
aF0.128
assS'NaF'
p753
(dp754
S'h'
(lp755
F0
aF0
aF0
asS's'
(lp756
F0
aF0
aF0
asS'm'
(lp757
F0
aF0
aF0
asS'iNa'
p758
(lp759
F0
aF0
aF0
asS'gmax'
p760
(lp761
F0.5
aF0.5
aF0.5
asssg167
g168
((ltRp762
sg170
(dp763
sg172
F174
sg173
(dp764
g175
(lp765
F1
aF1
aF1
asg177
F0
sg178
I0
sg179
(lp766
(F0
F0
F0
F1
tp767
a(F-1
F0
F0
F1
tp768
asS'L'
F1
sg184
F0.5
ssg185
S'__nrnsec_0x55d4ce39acd0'
p769
sg187
g168
((ltRp770
sa(dp771
g20
(dp772
S'na'
p773
(dp774
S'ena'
p775
(lp776
F50
asS'dina_dv_'
p777
(lp778
F0
asS'nai'
p779
(lp780
F10
asS'nao'
p781
(lp782
F140
asS'ina'
p783
(lp784
F0
asg34
F8
ssS'k'
(dp785
S'ek'
p786
(lp787
F-77
asS'ki'
p788
(lp789
F54.399999999999999
asS'ko'
p790
(lp791
F2.5
asS'ik'
p792
(lp793
F0
asS'dik_dv_'
p794
(lp795
F0
asg34
F8
ssS'ca'
p796
(dp797
S'eca'
p798
(lp799
F132.45793416370091
asS'dica_dv_'
p800
(lp801
F0
asS'ica'
p802
(lp803
F0
asS'cai'
p804
(lp805
F5.0000000000000002e-05
asS'cao'
p806
(lp807
F2
asg34
F247
sssg58
S'zipC0'
p808
sg60
(lp809
F4.4090815370119243
asg62
I1
sg63
(dp810
S'pas'
p811
(dp812
S'i'
(lp813
F0
asS'e'
(lp814
F-60
asS'g'
(lp815
F0.00012497396646859199
assS'Kv4s'
p816
(dp817
S'm'
(lp818
F0
asS'h'
(lp819
F0
asS'iKv4s'
p820
(lp821
F0
asS'gmax'
p822
(lp823
F0.011022703842529812
assS'Kv4f'
p824
(dp825
S'iKv4f'
p826
(lp827
F0
asS'h'
(lp828
F0
asS'm'
(lp829
F0
asS'gmax'
p830
(lp831
F0.007348469228353212
assS'HCN2'
p832
(dp833
S'ih'
p834
(lp835
F0
asS'iHCN'
p836
(lp837
F0
asS'm'
(lp838
F0
asS'gmax'
p839
(lp840
F0.00045927932677207575
assS'KCNQ'
p841
(dp842
S'iKCNQ'
p843
(lp844
F0
asS'm'
(lp845
F0
asS'gmax'
p846
(lp847
F0.00036742346141766056
assS'SK'
p848
(dp849
S'iSK'
p850
(lp851
F0
asS'm'
(lp852
F0
asS'gmax'
p853
(lp854
F7.3484692283532125e-05
assS'Calcium'
p855
(dp856
S'tau'
p857
(lp858
F1
asS'depth'
p859
(lp860
F1600000000000
asS'cai0'
p861
(lp862
F5.0000000000000002e-05
assS'NaP'
p863
(dp864
S'h'
(lp865
F0
asS's'
(lp866
F0
asS'm'
(lp867
F0
asS'iNa'
p868
(lp869
F0
asS'gmax'
p870
(lp871
F0.00018646740666946276
assS'Kv2'
p872
(dp873
S'm'
(lp874
F0
asS'h'
(lp875
F0
asS'iKv2'
p876
(lp877
F0
asS'gmax'
p878
(lp879
F0.00018371173070883028
assS'Kv3'
p880
(dp881
S'h'
(lp882
F0
asS'm'
(lp883
F0
asS'iKv3'
p884
(lp885
F0
asS'gmax'
p886
(lp887
F0.001837117307088303
assS'CaHVA'
p888
(dp889
S'iCaH'
p890
(lp891
F0
asS'm'
(lp892
F0
asS'gmax'
p893
(lp894
F0.00014237659129919181
assS'NaF'
p895
(dp896
S'h'
(lp897
F0
asS's'
(lp898
F0
asS'm'
(lp899
F0
asS'iNa'
p900
(lp901
F0
asS'gmax'
p902
(lp903
F0.064299105748090599
assS'HCN'
p904
(dp905
S'ih'
p906
(lp907
F0
asS'iHCN'
p908
(lp909
F0
asS'm'
(lp910
F0
asS'gmax'
p911
(lp912
F0.00018371173070883028
asssg167
g168
((ltRp913
sg170
(dp914
sg172
F174
sg173
(dp915
g175
(lp916
F1.6329931618562683
asg177
F0
sg178
I1
sg179
(lp917
sS'L'
F1.9999999999760003
sg184
F1
ssg185
S'__nrnsec_0x55d4ce39bdb0'
p918
sg187
g168
((ltRp919
sa(dp920
g20
(dp921
S'na'
p922
(dp923
S'ena'
p924
(lp925
F50
asS'dina_dv_'
p926
(lp927
F0
asS'nai'
p928
(lp929
F10
asS'nao'
p930
(lp931
F140
asS'ina'
p932
(lp933
F0
asg34
F8
ssS'k'
(dp934
S'ek'
p935
(lp936
F-77
asS'ki'
p937
(lp938
F54.399999999999999
asS'ko'
p939
(lp940
F2.5
asS'ik'
p941
(lp942
F0
asS'dik_dv_'
p943
(lp944
F0
asg34
F8
ssS'ca'
p945
(dp946
S'eca'
p947
(lp948
F132.45793416370091
asS'dica_dv_'
p949
(lp950
F0
asS'ica'
p951
(lp952
F0
asS'cai'
p953
(lp954
F5.0000000000000002e-05
asS'cao'
p955
(lp956
F2
asg34
F247
sssg58
S'zipB0'
p957
sg60
(lp958
F4.4090815370093539
asg62
I1
sg63
(dp959
S'pas'
p960
(dp961
S'i'
(lp962
F0
asS'e'
(lp963
F-60
asS'g'
(lp964
F0.0001249739664685191
assS'Kv4s'
p965
(dp966
S'm'
(lp967
F0
asS'h'
(lp968
F0
asS'iKv4s'
p969
(lp970
F0
asS'gmax'
p971
(lp972
F0.011022703842523384
assS'Kv4f'
p973
(dp974
S'iKv4f'
p975
(lp976
F0
asS'h'
(lp977
F0
asS'm'
(lp978
F0
asS'gmax'
p979
(lp980
F0.0073484692283489247
assS'HCN2'
p981
(dp982
S'ih'
p983
(lp984
F0
asS'iHCN'
p985
(lp986
F0
asS'm'
(lp987
F0
asS'gmax'
p988
(lp989
F0.00045927932677180779
assS'KCNQ'
p990
(dp991
S'iKCNQ'
p992
(lp993
F0
asS'm'
(lp994
F0
asS'gmax'
p995
(lp996
F0.00036742346141744616
assS'SK'
p997
(dp998
S'iSK'
p999
(lp1000
F0
asS'm'
(lp1001
F0
asS'gmax'
p1002
(lp1003
F7.3484692283489232e-05
assS'Calcium'
p1004
(dp1005
S'tau'
p1006
(lp1007
F1
asS'depth'
p1008
(lp1009
F1600000000000
asS'cai0'
p1010
(lp1011
F5.0000000000000002e-05
assS'NaP'
p1012
(dp1013
S'h'
(lp1014
F0
asS's'
(lp1015
F0
asS'm'
(lp1016
F0
asS'iNa'
p1017
(lp1018
F0
asS'gmax'
p1019
(lp1020
F0.0001864674066693539
assS'Kv2'
p1021
(dp1022
S'm'
(lp1023
F0
asS'h'
(lp1024
F0
asS'iKv2'
p1025
(lp1026
F0
asS'gmax'
p1027
(lp1028
F0.00018371173070872308
assS'Kv3'
p1029
(dp1030
S'h'
(lp1031
F0
asS'm'
(lp1032
F0
asS'iKv3'
p1033
(lp1034
F0
asS'gmax'
p1035
(lp1036
F0.0018371173070872312
assS'CaHVA'
p1037
(dp1038
S'iCaH'
p1039
(lp1040
F0
asS'm'
(lp1041
F0
asS'gmax'
p1042
(lp1043
F9.6448658622097963e-05
assS'NaF'
p1044
(dp1045
S'h'
(lp1046
F0
asS's'
(lp1047
F0
asS'm'
(lp1048
F0
asS'iNa'
p1049
(lp1050
F0
asS'gmax'
p1051
(lp1052
F0.064299105748053073
assS'HCN'
p1053
(dp1054
S'ih'
p1055
(lp1056
F0
asS'iHCN'
p1057
(lp1058
F0
asS'm'
(lp1059
F0
asS'gmax'
p1060
(lp1061
F0.00018371173070872308
asssg167
g168
((ltRp1062
sg170
(dp1063
sg172
F174
sg173
(dp1064
g175
(lp1065
F1.632993161855316
asg177
F0
sg178
I2
sg179
(lp1066
sS'L'
F1.999999999993
sg184
F1
ssg185
S'__nrnsec_0x55d4ce39bcf0'
p1067
sg187
g168
((ltRp1068
sa(dp1069
g20
(dp1070
S'na'
p1071
(dp1072
S'ena'
p1073
(lp1074
F50
asS'dina_dv_'
p1075
(lp1076
F0
asS'nai'
p1077
(lp1078
F10
asS'nao'
p1079
(lp1080
F140
asS'ina'
p1081
(lp1082
F0
asg34
F8
ssS'k'
(dp1083
S'ek'
p1084
(lp1085
F-77
asS'ki'
p1086
(lp1087
F54.399999999999999
asS'ko'
p1088
(lp1089
F2.5
asS'ik'
p1090
(lp1091
F0
asS'dik_dv_'
p1092
(lp1093
F0
asg34
F8
ssS'ca'
p1094
(dp1095
S'eca'
p1096
(lp1097
F132.45793416370091
asS'dica_dv_'
p1098
(lp1099
F0
asS'ica'
p1100
(lp1101
F0
asS'cai'
p1102
(lp1103
F5.0000000000000002e-05
asS'cao'
p1104
(lp1105
F2
asg34
F247
sssg58
S'zipA0'
p1106
sg60
(lp1107
F3.7015916264818904
asg62
I1
sg63
(dp1108
S'pas'
p1109
(dp1110
S'i'
(lp1111
F0
asS'e'
(lp1112
F-60
asS'g'
(lp1113
F0.00010492039757601729
assS'Kv4s'
p1114
(dp1115
S'm'
(lp1116
F0
asS'h'
(lp1117
F0
asS'iKv4s'
p1118
(lp1119
F0
asS'gmax'
p1120
(lp1121
F0.0092539790662047264
assS'Kv4f'
p1122
(dp1123
S'iKv4f'
p1124
(lp1125
F0
asS'h'
(lp1126
F0
asS'm'
(lp1127
F0
asS'gmax'
p1128
(lp1129
F0.0061693193774698171
assS'HCN2'
p1130
(dp1131
S'ih'
p1132
(lp1133
F0
asS'iHCN'
p1134
(lp1135
F0
asS'm'
(lp1136
F0
asS'gmax'
p1137
(lp1138
F0.00038558246109186357
assS'KCNQ'
p1139
(dp1140
S'iKCNQ'
p1141
(lp1142
F0
asS'm'
(lp1143
F0
asS'gmax'
p1144
(lp1145
F0.00030846596887349089
assS'SK'
p1146
(dp1147
S'iSK'
p1148
(lp1149
F0
asS'm'
(lp1150
F0
asS'gmax'
p1151
(lp1152
F6.1693193774698185e-05
assS'Calcium'
p1153
(dp1154
S'tau'
p1155
(lp1156
F1
asS'depth'
p1157
(lp1158
F1600000000000
asS'cai0'
p1159
(lp1160
F5.0000000000000002e-05
assS'NaP'
p1161
(dp1162
S'h'
(lp1163
F0
asS's'
(lp1164
F0
asS'm'
(lp1165
F0
asS'iNa'
p1166
(lp1167
F0
asS'gmax'
p1168
(lp1169
F0.00015654647920329662
assS'Kv2'
p1170
(dp1171
S'm'
(lp1172
F0
asS'h'
(lp1173
F0
asS'iKv2'
p1174
(lp1175
F0
asS'gmax'
p1176
(lp1177
F0.00015423298443674544
assS'Kv3'
p1178
(dp1179
S'h'
(lp1180
F0
asS'm'
(lp1181
F0
asS'iKv3'
p1182
(lp1183
F0
asS'gmax'
p1184
(lp1185
F0.0015423298443674543
assS'CaHVA'
p1186
(dp1187
S'iCaH'
p1188
(lp1189
F0
asS'm'
(lp1190
F0
asS'gmax'
p1191
(lp1192
F6.1142361687329899e-05
assS'NaF'
p1193
(dp1194
S'h'
(lp1195
F0
asS's'
(lp1196
F0
asS'm'
(lp1197
F0
asS'iNa'
p1198
(lp1199
F0
asS'gmax'
p1200
(lp1201
F0.053981544552860909
assS'HCN'
p1202
(dp1203
S'ih'
p1204
(lp1205
F0
asS'iHCN'
p1206
(lp1207
F0
asS'm'
(lp1208
F0
asS'gmax'
p1209
(lp1210
F0.00015423298443674544
asssg167
g168
((ltRp1211
sg170
(dp1212
sg172
F174
sg173
(dp1213
g175
(lp1214
F1.5275252316520922
asg177
F0
sg178
I3
sg179
(lp1215
sS'L'
F1.6978305207336688
sg184
F1
ssg185
S'__nrnsec_0x55d4ce39bbd0'
p1216
sg187
g168
((ltRp1217
sa(dp1218
g20
(dp1219
S'na'
p1220
(dp1221
S'ena'
p1222
(lp1223
F50
asS'dina_dv_'
p1224
(lp1225
F0
asS'nai'
p1226
(lp1227
F10
asS'nao'
p1228
(lp1229
F140
asS'ina'
p1230
(lp1231
F0
asg34
F8
ssS'k'
(dp1232
S'ek'
p1233
(lp1234
F-77
asS'ki'
p1235
(lp1236
F54.399999999999999
asS'ko'
p1237
(lp1238
F2.5
asS'ik'
p1239
(lp1240
F0
asS'dik_dv_'
p1241
(lp1242
F0
asg34
F8
ssS'ca'
p1243
(dp1244
S'eca'
p1245
(lp1246
F132.45793416370091
asS'dica_dv_'
p1247
(lp1248
F0
asS'ica'
p1249
(lp1250
F0
asS'cai'
p1251
(lp1252
F5.0000000000000002e-05
asS'cao'
p1253
(lp1254
F2
asg34
F247
sssg58
S'zipC1'
p1255
sg60
(lp1256
F4.7655096014137408
asg62
I1
sg63
(dp1257
S'pas'
p1258
(dp1259
S'i'
(lp1260
F0
asS'e'
(lp1261
F-60
asS'g'
(lp1262
F0.00013507680276116048
assS'Kv4s'
p1263
(dp1264
S'm'
(lp1265
F0
asS'h'
(lp1266
F0
asS'iKv4s'
p1267
(lp1268
F0
asS'gmax'
p1269
(lp1270
F0.011913774003534354
assS'Kv4f'
p1271
(dp1272
S'iKv4f'
p1273
(lp1274
F0
asS'h'
(lp1275
F0
asS'm'
(lp1276
F0
asS'gmax'
p1277
(lp1278
F0.0079425160023562352
assS'HCN2'
p1279
(dp1280
S'ih'
p1281
(lp1282
F0
asS'iHCN'
p1283
(lp1284
F0
asS'm'
(lp1285
F0
asS'gmax'
p1286
(lp1287
F0.0004964072501472647
assS'KCNQ'
p1288
(dp1289
S'iKCNQ'
p1290
(lp1291
F0
asS'm'
(lp1292
F0
asS'gmax'
p1293
(lp1294
F0.00039712580011781181
assS'SK'
p1295
(dp1296
S'iSK'
p1297
(lp1298
F0
asS'm'
(lp1299
F0
asS'gmax'
p1300
(lp1301
F7.9425160023562373e-05
assS'Calcium'
p1302
(dp1303
S'tau'
p1304
(lp1305
F1
asS'depth'
p1306
(lp1307
F1600000000000
asS'cai0'
p1308
(lp1309
F5.0000000000000002e-05
assS'NaP'
p1310
(dp1311
S'h'
(lp1312
F0
asS's'
(lp1313
F0
asS'm'
(lp1314
F0
asS'iNa'
p1315
(lp1316
F0
asS'gmax'
p1317
(lp1318
F0.00020154134355978952
assS'Kv2'
p1319
(dp1320
S'm'
(lp1321
F0
asS'h'
(lp1322
F0
asS'iKv2'
p1323
(lp1324
F0
asS'gmax'
p1325
(lp1326
F0.00019856290005890591
assS'Kv3'
p1327
(dp1328
S'h'
(lp1329
F0
asS'm'
(lp1330
F0
asS'iKv3'
p1331
(lp1332
F0
asS'gmax'
p1333
(lp1334
F0.0019856290005890588
assS'CaHVA'
p1335
(dp1336
S'iCaH'
p1337
(lp1338
F0
asS'm'
(lp1339
F0
asS'gmax'
p1340
(lp1341
F0.00017870661005301529
assS'NaF'
p1342
(dp1343
S'h'
(lp1344
F0
asS's'
(lp1345
F0
asS'm'
(lp1346
F0
asS'iNa'
p1347
(lp1348
F0
asS'gmax'
p1349
(lp1350
F0.069497015020617073
assS'HCN'
p1351
(dp1352
S'ih'
p1353
(lp1354
F0
asS'iHCN'
p1355
(lp1356
F0
asS'm'
(lp1357
F0
asS'gmax'
p1358
(lp1359
F0.00019856290005890591
asssg167
g168
((ltRp1360
sg170
(dp1361
sg172
F174
sg173
(dp1362
g175
(lp1363
F2.0816659994666797
asg177
F0
sg178
I5
sg179
(lp1364
sS'L'
F1.4515837387573403
sg184
F1
ssg185
S'__nrnsec_0x55d4ce39be10'
p1365
sg187
g168
((ltRp1366
sa(dp1367
g20
(dp1368
S'na'
p1369
(dp1370
S'ena'
p1371
(lp1372
F50
asS'dina_dv_'
p1373
(lp1374
F0
asS'nai'
p1375
(lp1376
F10
asS'nao'
p1377
(lp1378
F140
asS'ina'
p1379
(lp1380
F0
asg34
F8
ssS'k'
(dp1381
S'ek'
p1382
(lp1383
F-77
asS'ki'
p1384
(lp1385
F54.399999999999999
asS'ko'
p1386
(lp1387
F2.5
asS'ik'
p1388
(lp1389
F0
asS'dik_dv_'
p1390
(lp1391
F0
asg34
F8
ssS'ca'
p1392
(dp1393
S'eca'
p1394
(lp1395
F132.45793416370091
asS'dica_dv_'
p1396
(lp1397
F0
asS'ica'
p1398
(lp1399
F0
asS'cai'
p1400
(lp1401
F5.0000000000000002e-05
asS'cao'
p1402
(lp1403
F2
asg34
F247
sssg58
S'zipB1'
p1404
sg60
(lp1405
F4.7999999999999998
asg62
I1
sg63
(dp1406
S'pas'
p1407
(dp1408
S'i'
(lp1409
F0
asS'e'
(lp1410
F-60
asS'g'
(lp1411
F0.00013605442176870748
assS'Kv4s'
p1412
(dp1413
S'm'
(lp1414
F0
asS'h'
(lp1415
F0
asS'iKv4s'
p1416
(lp1417
F0
asS'gmax'
p1418
(lp1419
F0.012
assS'Kv4f'
p1420
(dp1421
S'iKv4f'
p1422
(lp1423
F0
asS'h'
(lp1424
F0
asS'm'
(lp1425
F0
asS'gmax'
p1426
(lp1427
F0.0080000000000000002
assS'HCN2'
p1428
(dp1429
S'ih'
p1430
(lp1431
F0
asS'iHCN'
p1432
(lp1433
F0
asS'm'
(lp1434
F0
asS'gmax'
p1435
(lp1436
F0.00050000000000000001
assS'KCNQ'
p1437
(dp1438
S'iKCNQ'
p1439
(lp1440
F0
asS'm'
(lp1441
F0
asS'gmax'
p1442
(lp1443
F0.00039999999999999996
assS'SK'
p1444
(dp1445
S'iSK'
p1446
(lp1447
F0
asS'm'
(lp1448
F0
asS'gmax'
p1449
(lp1450
F8.0000000000000007e-05
assS'Calcium'
p1451
(dp1452
S'tau'
p1453
(lp1454
F1
asS'depth'
p1455
(lp1456
F1600000000000
asS'cai0'
p1457
(lp1458
F5.0000000000000002e-05
assS'NaP'
p1459
(dp1460
S'h'
(lp1461
F0
asS's'
(lp1462
F0
asS'm'
(lp1463
F0
asS'iNa'
p1464
(lp1465
F0
asS'gmax'
p1466
(lp1467
F0.000203
assS'Kv2'
p1468
(dp1469
S'm'
(lp1470
F0
asS'h'
(lp1471
F0
asS'iKv2'
p1472
(lp1473
F0
asS'gmax'
p1474
(lp1475
F0.00019999999999999998
assS'Kv3'
p1476
(dp1477
S'h'
(lp1478
F0
asS'm'
(lp1479
F0
asS'iKv3'
p1480
(lp1481
F0
asS'gmax'
p1482
(lp1483
F0.002
assS'CaHVA'
p1484
(dp1485
S'iCaH'
p1486
(lp1487
F0
asS'm'
(lp1488
F0
asS'gmax'
p1489
(lp1490
F0.00013500000000000748
assS'NaF'
p1491
(dp1492
S'h'
(lp1493
F0
asS's'
(lp1494
F0
asS'm'
(lp1495
F0
asS'iNa'
p1496
(lp1497
F0
asS'gmax'
p1498
(lp1499
F0.070000000000000007
assS'HCN'
p1500
(dp1501
S'ih'
p1502
(lp1503
F0
asS'iHCN'
p1504
(lp1505
F0
asS'm'
(lp1506
F0
asS'gmax'
p1507
(lp1508
F0.00019999999999999998
asssg167
g168
((ltRp1509
sg170
(dp1510
sg172
F174
sg173
(dp1511
g175
(lp1512
F2.0000000000009996
asg177
F0
sg178
I6
sg179
(lp1513
sS'L'
F0.99999999999700018
sg184
F1
ssg185
S'__nrnsec_0x55d4ce39bd50'
p1514
sg187
g168
((ltRp1515
sa(dp1516
g20
(dp1517
S'na'
p1518
(dp1519
S'ena'
p1520
(lp1521
F50
asS'dina_dv_'
p1522
(lp1523
F0
asS'nai'
p1524
(lp1525
F10
asS'nao'
p1526
(lp1527
F140
asS'ina'
p1528
(lp1529
F0
asg34
F8
ssS'k'
(dp1530
S'ek'
p1531
(lp1532
F-77
asS'ki'
p1533
(lp1534
F54.399999999999999
asS'ko'
p1535
(lp1536
F2.5
asS'ik'
p1537
(lp1538
F0
asS'dik_dv_'
p1539
(lp1540
F0
asg34
F8
ssS'ca'
p1541
(dp1542
S'eca'
p1543
(lp1544
F132.45793416370091
asS'dica_dv_'
p1545
(lp1546
F0
asS'ica'
p1547
(lp1548
F0
asS'cai'
p1549
(lp1550
F5.0000000000000002e-05
asS'cao'
p1551
(lp1552
F2
asg34
F247
sssg58
S'zipA1'
p1553
sg60
(lp1554
F3.7015916264871587
asg62
I1
sg63
(dp1555
S'pas'
p1556
(dp1557
S'i'
(lp1558
F0
asS'e'
(lp1559
F-60
asS'g'
(lp1560
F0.00010492039757616666
assS'Kv4s'
p1561
(dp1562
S'm'
(lp1563
F0
asS'h'
(lp1564
F0
asS'iKv4s'
p1565
(lp1566
F0
asS'gmax'
p1567
(lp1568
F0.0092539790662178999
assS'Kv4f'
p1569
(dp1570
S'iKv4f'
p1571
(lp1572
F0
asS'h'
(lp1573
F0
asS'm'
(lp1574
F0
asS'gmax'
p1575
(lp1576
F0.0061693193774785991
assS'HCN2'
p1577
(dp1578
S'ih'
p1579
(lp1580
F0
asS'iHCN'
p1581
(lp1582
F0
asS'm'
(lp1583
F0
asS'gmax'
p1584
(lp1585
F0.00038558246109241244
assS'KCNQ'
p1586
(dp1587
S'iKCNQ'
p1588
(lp1589
F0
asS'm'
(lp1590
F0
asS'gmax'
p1591
(lp1592
F0.00030846596887392993
assS'SK'
p1593
(dp1594
S'iSK'
p1595
(lp1596
F0
asS'm'
(lp1597
F0
asS'gmax'
p1598
(lp1599
F6.1693193774785992e-05
assS'Calcium'
p1600
(dp1601
S'tau'
p1602
(lp1603
F1
asS'depth'
p1604
(lp1605
F1600000000000
asS'cai0'
p1606
(lp1607
F5.0000000000000002e-05
assS'NaP'
p1608
(dp1609
S'h'
(lp1610
F0
asS's'
(lp1611
F0
asS'm'
(lp1612
F0
asS'iNa'
p1613
(lp1614
F0
asS'gmax'
p1615
(lp1616
F0.00015654647920351942
assS'Kv2'
p1617
(dp1618
S'm'
(lp1619
F0
asS'h'
(lp1620
F0
asS'iKv2'
p1621
(lp1622
F0
asS'gmax'
p1623
(lp1624
F0.00015423298443696497
assS'Kv3'
p1625
(dp1626
S'h'
(lp1627
F0
asS'm'
(lp1628
F0
asS'iKv3'
p1629
(lp1630
F0
asS'gmax'
p1631
(lp1632
F0.0015423298443696498
assS'CaHVA'
p1633
(dp1634
S'iCaH'
p1635
(lp1636
F0
asS'm'
(lp1637
F0
asS'gmax'
p1638
(lp1639
F6.9404842996634224e-05
assS'NaF'
p1640
(dp1641
S'h'
(lp1642
F0
asS's'
(lp1643
F0
asS'm'
(lp1644
F0
asS'iNa'
p1645
(lp1646
F0
asS'gmax'
p1647
(lp1648
F0.053981544552937751
assS'HCN'
p1649
(dp1650
S'ih'
p1651
(lp1652
F0
asS'iHCN'
p1653
(lp1654
F0
asS'm'
(lp1655
F0
asS'gmax'
p1656
(lp1657
F0.00015423298443696497
asssg167
g168
((ltRp1658
sg170
(dp1659
sg172
F174
sg173
(dp1660
g175
(lp1661
F1.52752523165291
asg177
F0
sg178
I7
sg179
(lp1662
sS'L'
F1.6978305207409545
sg184
F1
ssg185
S'__nrnsec_0x55d4ce39bc30'
p1663
sg187
g168
((ltRp1664
sa(dp1665
g20
(dp1666
S'na'
p1667
(dp1668
S'ena'
p1669
(lp1670
F50
asS'dina_dv_'
p1671
(lp1672
F0
asS'nai'
p1673
(lp1674
F10
asS'nao'
p1675
(lp1676
F140
asS'ina'
p1677
(lp1678
F0
asg34
F8
ssS'k'
(dp1679
S'ek'
p1680
(lp1681
F-77
asS'ki'
p1682
(lp1683
F54.399999999999999
asS'ko'
p1684
(lp1685
F2.5
asS'ik'
p1686
(lp1687
F0
asS'dik_dv_'
p1688
(lp1689
F0
asg34
F8
ssS'ca'
p1690
(dp1691
S'eca'
p1692
(lp1693
F132.45793416370091
asS'dica_dv_'
p1694
(lp1695
F0
asS'ica'
p1696
(lp1697
F0
asS'cai'
p1698
(lp1699
F5.0000000000000002e-05
asS'cao'
p1700
(lp1701
F2
asg34
F247
sssg58
S'zipC2'
p1702
sg60
(lp1703
F3.7015916264900639
asg62
I1
sg63
(dp1704
S'pas'
p1705
(dp1706
S'i'
(lp1707
F0
asS'e'
(lp1708
F-60
asS'g'
(lp1709
F0.00010492039757624897
assS'Kv4s'
p1710
(dp1711
S'm'
(lp1712
F0
asS'h'
(lp1713
F0
asS'iKv4s'
p1714
(lp1715
F0
asS'gmax'
p1716
(lp1717
F0.0092539790662251598
assS'Kv4f'
p1718
(dp1719
S'iKv4f'
p1720
(lp1721
F0
asS'h'
(lp1722
F0
asS'm'
(lp1723
F0
asS'gmax'
p1724
(lp1725
F0.0061693193774834398
assS'HCN2'
p1726
(dp1727
S'ih'
p1728
(lp1729
F0
asS'iHCN'
p1730
(lp1731
F0
asS'm'
(lp1732
F0
asS'gmax'
p1733
(lp1734
F0.00038558246109271499
assS'KCNQ'
p1735
(dp1736
S'iKCNQ'
p1737
(lp1738
F0
asS'm'
(lp1739
F0
asS'gmax'
p1740
(lp1741
F0.00030846596887417198
assS'SK'
p1742
(dp1743
S'iSK'
p1744
(lp1745
F0
asS'm'
(lp1746
F0
asS'gmax'
p1747
(lp1748
F6.1693193774834402e-05
assS'Calcium'
p1749
(dp1750
S'tau'
p1751
(lp1752
F1
asS'depth'
p1753
(lp1754
F1600000000000
asS'cai0'
p1755
(lp1756
F5.0000000000000002e-05
assS'NaP'
p1757
(dp1758
S'h'
(lp1759
F0
asS's'
(lp1760
F0
asS'm'
(lp1761
F0
asS'iNa'
p1762
(lp1763
F0
asS'gmax'
p1764
(lp1765
F0.00015654647920364226
assS'Kv2'
p1766
(dp1767
S'm'
(lp1768
F0
asS'h'
(lp1769
F0
asS'iKv2'
p1770
(lp1771
F0
asS'gmax'
p1772
(lp1773
F0.00015423298443708599
assS'Kv3'
p1774
(dp1775
S'h'
(lp1776
F0
asS'm'
(lp1777
F0
asS'iKv3'
p1778
(lp1779
F0
asS'gmax'
p1780
(lp1781
F0.00154232984437086
assS'CaHVA'
p1782
(dp1783
S'iCaH'
p1784
(lp1785
F0
asS'm'
(lp1786
F0
asS'gmax'
p1787
(lp1788
F0.00013880968599337736
assS'NaF'
p1789
(dp1790
S'h'
(lp1791
F0
asS's'
(lp1792
F0
asS'm'
(lp1793
F0
asS'iNa'
p1794
(lp1795
F0
asS'gmax'
p1796
(lp1797
F0.053981544552980106
assS'HCN'
p1798
(dp1799
S'ih'
p1800
(lp1801
F0
asS'iHCN'
p1802
(lp1803
F0
asS'm'
(lp1804
F0
asS'gmax'
p1805
(lp1806
F0.00015423298443708599
asssg167
g168
((ltRp1807
sg170
(dp1808
sg172
F174
sg173
(dp1809
g175
(lp1810
F1.52752523165291
asg177
F0
sg178
I8
sg179
(lp1811
sS'L'
F1.69783052074132
sg184
F1
ssg185
S'__nrnsec_0x55d4ce39be70'
p1812
sg187
g168
((ltRp1813
sa(dp1814
g20
(dp1815
S'na'
p1816
(dp1817
S'ena'
p1818
(lp1819
F50
asS'dina_dv_'
p1820
(lp1821
F0
asS'nai'
p1822
(lp1823
F10
asS'nao'
p1824
(lp1825
F140
asS'ina'
p1826
(lp1827
F0
asg34
F8
ssS'k'
(dp1828
S'ek'
p1829
(lp1830
F-77
asS'ki'
p1831
(lp1832
F54.399999999999999
asS'ko'
p1833
(lp1834
F2.5
asS'ik'
p1835
(lp1836
F0
asS'dik_dv_'
p1837
(lp1838
F0
asg34
F8
ssS'ca'
p1839
(dp1840
S'eca'
p1841
(lp1842
F132.45793416370091
asS'dica_dv_'
p1843
(lp1844
F0
asS'ica'
p1845
(lp1846
F0
asS'cai'
p1847
(lp1848
F5.0000000000000002e-05
asS'cao'
p1849
(lp1850
F2
asg34
F247
sssg58
S'zipA2'
p1851
sg60
(lp1852
F3.394112549695429
asg62
I1
sg63
(dp1853
S'pas'
p1854
(dp1855
S'i'
(lp1856
F0
asS'e'
(lp1857
F-60
asS'g'
(lp1858
F9.6205004243067707e-05
assS'Kv4s'
p1859
(dp1860
S'm'
(lp1861
F0
asS'h'
(lp1862
F0
asS'iKv4s'
p1863
(lp1864
F0
asS'gmax'
p1865
(lp1866
F0.0084852813742385732
assS'Kv4f'
p1867
(dp1868
S'iKv4f'
p1869
(lp1870
F0
asS'h'
(lp1871
F0
asS'm'
(lp1872
F0
asS'gmax'
p1873
(lp1874
F0.0056568542494923801
assS'HCN2'
p1875
(dp1876
S'ih'
p1877
(lp1878
F0
asS'iHCN'
p1879
(lp1880
F0
asS'm'
(lp1881
F0
asS'gmax'
p1882
(lp1883
F0.00035355339059327376
assS'KCNQ'
p1884
(dp1885
S'iKCNQ'
p1886
(lp1887
F0
asS'm'
(lp1888
F0
asS'gmax'
p1889
(lp1890
F0.00028284271247461907
assS'SK'
p1891
(dp1892
S'iSK'
p1893
(lp1894
F0
asS'm'
(lp1895
F0
asS'gmax'
p1896
(lp1897
F5.6568542494923811e-05
assS'Calcium'
p1898
(dp1899
S'tau'
p1900
(lp1901
F1
asS'depth'
p1902
(lp1903
F1600000000000
asS'cai0'
p1904
(lp1905
F5.0000000000000002e-05
assS'NaP'
p1906
(dp1907
S'h'
(lp1908
F0
asS's'
(lp1909
F0
asS'm'
(lp1910
F0
asS'iNa'
p1911
(lp1912
F0
asS'gmax'
p1913
(lp1914
F0.00014354267658086919
assS'Kv2'
p1915
(dp1916
S'm'
(lp1917
F0
asS'h'
(lp1918
F0
asS'iKv2'
p1919
(lp1920
F0
asS'gmax'
p1921
(lp1922
F0.00014142135623730954
assS'Kv3'
p1923
(dp1924
S'h'
(lp1925
F0
asS'm'
(lp1926
F0
asS'iKv3'
p1927
(lp1928
F0
asS'gmax'
p1929
(lp1930
F0.001414213562373095
assS'CaHVA'
p1931
(dp1932
S'iCaH'
p1933
(lp1934
F0
asS'm'
(lp1935
F0
asS'gmax'
p1936
(lp1937
F6.3639610306789283e-05
assS'NaF'
p1938
(dp1939
S'h'
(lp1940
F0
asS's'
(lp1941
F0
asS'm'
(lp1942
F0
asS'iNa'
p1943
(lp1944
F0
asS'gmax'
p1945
(lp1946
F0.049497474683058346
assS'HCN'
p1947
(dp1948
S'ih'
p1949
(lp1950
F0
asS'iHCN'
p1951
(lp1952
F0
asS'm'
(lp1953
F0
asS'gmax'
p1954
(lp1955
F0.00014142135623730954
asssg167
g168
((ltRp1956
sg170
(dp1957
sg172
F174
sg173
(dp1958
g175
(lp1959
F1.4142135623738021
asg177
F0
sg178
I10
sg179
(lp1960
sS'L'
F0.99999999999699996
sg184
F1
ssg185
S'__nrnsec_0x55d4ce39bc90'
p1961
sg187
g168
((ltRp1962
sasS'description'
p1963
S"Cell reduced using algorithm ReductionMethod.BushSejnowski implemented in class <class 'bgcellmodels.cersei.collapse.tapered_folding.TaperedFolder'>, from 141 to 25 compartments."
p1964
sS'metadata'
p1965
Ns.