(dp1
S'cell_sectionlists'
p2
(dp3
S'basal'
p4
(lp5
S'GPe[0].dend[0]'
p6
aS'GPe[0].dend[1]'
p7
aS'GPe[0].dend[2]'
p8
aS'GPe[0].dend[3]'
p9
aS'GPe[0].dend[4]'
p10
aS'GPe[0].dend[5]'
p11
aS'GPe[0].dend[6]'
p12
aS'GPe[0].dend[7]'
p13
aS'GPe[0].dend[8]'
p14
aS'GPe[0].dend[9]'
p15
aS'GPe[0].dend[10]'
p16
aS'GPe[0].dend[11]'
p17
aS'GPe[0].dend[12]'
p18
aS'GPe[0].dend[13]'
p19
aS'GPe[0].dend[14]'
p20
aS'GPe[0].dend[15]'
p21
aS'GPe[0].dend[16]'
p22
aS'GPe[0].dend[17]'
p23
aS'GPe[0].dend[18]'
p24
aS'GPe[0].dend[19]'
p25
aS'GPe[0].dend[20]'
p26
aS'GPe[0].dend[21]'
p27
aS'GPe[0].dend[22]'
p28
aS'GPe[0].dend[23]'
p29
aS'GPe[0].dend[24]'
p30
aS'GPe[0].dend[25]'
p31
aS'GPe[0].dend[26]'
p32
aS'GPe[0].dend[27]'
p33
aS'GPe[0].dend[28]'
p34
aS'GPe[0].dend[29]'
p35
aS'GPe[0].dend[30]'
p36
aS'GPe[0].dend[31]'
p37
aS'GPe[0].dend[32]'
p38
aS'GPe[0].dend[33]'
p39
aS'GPe[0].dend[34]'
p40
aS'GPe[0].dend[35]'
p41
aS'GPe[0].dend[36]'
p42
aS'GPe[0].dend[37]'
p43
aS'GPe[0].dend[38]'
p44
asS'apical'
p45
(lp46
sS'axonal'
p47
(lp48
S'GPe[0].axon[0]'
p49
asS'myelinated'
p50
(lp51
sS'somatic'
p52
(lp53
S'GPe[0].soma[0]'
p54
assS'section_data'
p55
(lp56
(dp57
S'ions'
p58
(dp59
S'na'
p60
(dp61
S'ena'
p62
(lp63
F50
asS'dina_dv_'
p64
(lp65
F0
asS'nai'
p66
(lp67
F10
asS'nao'
p68
(lp69
F140
asS'ina'
p70
(lp71
F0
asS'ion_style'
p72
F8
ssS'k'
(dp73
S'ek'
p74
(lp75
F-90
asS'ki'
p76
(lp77
F54.399999999999999
asS'ko'
p78
(lp79
F2.5
asS'ik'
p80
(lp81
F0
asS'dik_dv_'
p82
(lp83
F0
asg72
F8
ssS'ca'
p84
(dp85
S'eca'
p86
(lp87
F132.45793416370091
asS'dica_dv_'
p88
(lp89
F0
asS'ica'
p90
(lp91
F0
asS'cai'
p92
(lp93
F5.0000000000000002e-05
asS'cao'
p94
(lp95
F2
asg72
F247
sssS'name'
p96
S'GPe[0].soma[0]'
p97
sS'cm'
p98
(lp99
F2.3999999999999999
asS'nseg'
p100
I1
sS'density_mechs'
p101
(dp102
S'pas'
p103
(dp104
S'i'
(lp105
F0
asS'e'
(lp106
F-60
asS'g'
(lp107
F6.802721088435374e-05
assS'Kv4s'
p108
(dp109
S'm'
(lp110
F0
asS'h'
(lp111
F0
asS'iKv4s'
p112
(lp113
F0
asS'gmax'
p114
(lp115
F0.0030000000000000001
assS'Kv4f'
p116
(dp117
S'iKv4f'
p118
(lp119
F0
asS'h'
(lp120
F0
asS'm'
(lp121
F0
asS'gmax'
p122
(lp123
F0.002
assS'HCN2'
p124
(dp125
S'ih'
p126
(lp127
F0
asS'iHCN'
p128
(lp129
F0
asS'm'
(lp130
F0
asS'gmax'
p131
(lp132
F0.00025000000000000001
assS'KCNQ'
p133
(dp134
S'iKCNQ'
p135
(lp136
F0
asS'm'
(lp137
F0
asS'gmax'
p138
(lp139
F0.00020000000000000001
assS'SK'
p140
(dp141
S'iSK'
p142
(lp143
F0
asS'm'
(lp144
F0
asS'gmax'
p145
(lp146
F0.0064000000000000003
assS'Calcium'
p147
(dp148
S'tau'
p149
(lp150
F1
asS'depth'
p151
(lp152
F1600000000000
asS'cai0'
p153
(lp154
F5.0000000000000002e-05
assS'NaP'
p155
(dp156
S'h'
(lp157
F0
asS's'
(lp158
F0
asS'm'
(lp159
F0
asS'iNa'
p160
(lp161
F0
asS'gmax'
p162
(lp163
F0.0001015
assS'Kv2'
p164
(dp165
S'm'
(lp166
F0
asS'h'
(lp167
F0
asS'iKv2'
p168
(lp169
F0
asS'gmax'
p170
(lp171
F0.0001
assS'Kv3'
p172
(dp173
S'h'
(lp174
F0
asS'm'
(lp175
F0
asS'iKv3'
p176
(lp177
F0
asS'gmax'
p178
(lp179
F0.001
assS'CaHVA'
p180
(dp181
S'iCaH'
p182
(lp183
F0
asS'm'
(lp184
F0
asS'gmax'
p185
(lp186
F3.0000000000000001e-05
assS'NaF'
p187
(dp188
S'h'
(lp189
F0
asS's'
(lp190
F0
asS'm'
(lp191
F0
asS'iNa'
p192
(lp193
F0
asS'gmax'
p194
(lp195
F0.035000000000000003
assS'HCN'
p196
(dp197
S'ih'
p198
(lp199
F0
asS'iHCN'
p200
(lp201
F0
asS'm'
(lp202
F0
asS'gmax'
p203
(lp204
F0.0001
asssS'regions'
p205
c__builtin__
set
p206
((ltRp207
sS'point_processes'
p208
(dp209
sS'Ra'
p210
F174
sS'morphology'
p211
(dp212
S'diam'
p213
(lp214
F1
asS'section_orientation'
p215
F0
sS'parent_idx'
p216
I-1
sS'pts3d'
p217
(lp218
(F-6.6999998092651367
F0
F0
F1
tp219
a(F-6.1999998092651367
F0
F0
F1
tp220
a(F-5.6999998092651367
F0
F0
F1
tp221
asS'L'
F1
sS'parent_loc'
p222
I-1
ssS'hoc_internal_name'
p223
S'__nrnsec_0x56510796b640'
p224
sS'species'
p225
g206
((ltRp226
sa(dp227
g58
(dp228
S'na'
p229
(dp230
S'ena'
p231
(lp232
F50
aF50
aF50
asS'dina_dv_'
p233
(lp234
F0
aF0
aF0
asS'nai'
p235
(lp236
F10
aF10
aF10
asS'nao'
p237
(lp238
F140
aF140
aF140
asS'ina'
p239
(lp240
F0
aF0
aF0
asg72
F8
ssS'k'
(dp241
S'ek'
p242
(lp243
F-90
aF-90
aF-90
asS'ki'
p244
(lp245
F54.399999999999999
aF54.399999999999999
aF54.399999999999999
asS'ko'
p246
(lp247
F2.5
aF2.5
aF2.5
asS'ik'
p248
(lp249
F0
aF0
aF0
asS'dik_dv_'
p250
(lp251
F0
aF0
aF0
asg72
F8
ssS'ca'
p252
(dp253
S'eca'
p254
(lp255
F132.45793416370091
aF132.45793416370091
aF132.45793416370091
asS'dica_dv_'
p256
(lp257
F0
aF0
aF0
asS'ica'
p258
(lp259
F0
aF0
aF0
asS'cai'
p260
(lp261
F5.0000000000000002e-05
aF5.0000000000000002e-05
aF5.0000000000000002e-05
asS'cao'
p262
(lp263
F2
aF2
aF2
asg72
F247
sssg96
S'GPe[0].dend[22]'
p264
sg98
(lp265
F2.3999999999999999
aF2.3999999999999999
aF2.3999999999999999
asg100
I3
sg101
(dp266
S'pas'
p267
(dp268
S'i'
(lp269
F0
aF0
aF0
asS'e'
(lp270
F-60
aF-60
aF-60
asS'g'
(lp271
F6.802721088435374e-05
aF6.802721088435374e-05
aF6.802721088435374e-05
assS'Kv4s'
p272
(dp273
S'm'
(lp274
F0
aF0
aF0
asS'h'
(lp275
F0
aF0
aF0
asS'iKv4s'
p276
(lp277
F0
aF0
aF0
asS'gmax'
p278
(lp279
F0.0060000000000000001
aF0.0060000000000000001
aF0.0060000000000000001
assS'Kv4f'
p280
(dp281
S'iKv4f'
p282
(lp283
F0
aF0
aF0
asS'h'
(lp284
F0
aF0
aF0
asS'm'
(lp285
F0
aF0
aF0
asS'gmax'
p286
(lp287
F0.0040000000000000001
aF0.0040000000000000001
aF0.0040000000000000001
assS'HCN2'
p288
(dp289
S'ih'
p290
(lp291
F0
aF0
aF0
asS'iHCN'
p292
(lp293
F0
aF0
aF0
asS'm'
(lp294
F0
aF0
aF0
asS'gmax'
p295
(lp296
F0.00025000000000000001
aF0.00025000000000000001
aF0.00025000000000000001
assS'KCNQ'
p297
(dp298
S'iKCNQ'
p299
(lp300
F0
aF0
aF0
asS'm'
(lp301
F0
aF0
aF0
asS'gmax'
p302
(lp303
F0.00020000000000000001
aF0.00020000000000000001
aF0.00020000000000000001
assS'SK'
p304
(dp305
S'iSK'
p306
(lp307
F0
aF0
aF0
asS'm'
(lp308
F0
aF0
aF0
asS'gmax'
p309
(lp310
F4.0000000000000003e-05
aF4.0000000000000003e-05
aF4.0000000000000003e-05
assS'Calcium'
p311
(dp312
S'tau'
p313
(lp314
F1
aF1
aF1
asS'depth'
p315
(lp316
F1600000000000
aF1600000000000
aF1600000000000
asS'cai0'
p317
(lp318
F5.0000000000000002e-05
aF5.0000000000000002e-05
aF5.0000000000000002e-05
assS'NaP'
p319
(dp320
S'h'
(lp321
F0
aF0
aF0
asS's'
(lp322
F0
aF0
aF0
asS'm'
(lp323
F0
aF0
aF0
asS'iNa'
p324
(lp325
F0
aF0
aF0
asS'gmax'
p326
(lp327
F0.0001015
aF0.0001015
aF0.0001015
assS'Kv2'
p328
(dp329
S'm'
(lp330
F0
aF0
aF0
asS'h'
(lp331
F0
aF0
aF0
asS'iKv2'
p332
(lp333
F0
aF0
aF0
asS'gmax'
p334
(lp335
F0.0001
aF0.0001
aF0.0001
assS'Kv3'
p336
(dp337
S'h'
(lp338
F0
aF0
aF0
asS'm'
(lp339
F0
aF0
aF0
asS'iKv3'
p340
(lp341
F0
aF0
aF0
asS'gmax'
p342
(lp343
F0.001
aF0.001
aF0.001
assS'CaHVA'
p344
(dp345
S'iCaH'
p346
(lp347
F0
aF0
aF0
asS'm'
(lp348
F0
aF0
aF0
asS'gmax'
p349
(lp350
F3.0000000000000001e-05
aF3.0000000000000001e-05
aF3.0000000000000001e-05
assS'NaF'
p351
(dp352
S'h'
(lp353
F0
aF0
aF0
asS's'
(lp354
F0
aF0
aF0
asS'm'
(lp355
F0
aF0
aF0
asS'iNa'
p356
(lp357
F0
aF0
aF0
asS'gmax'
p358
(lp359
F0.035000000000000003
aF0.035000000000000003
aF0.035000000000000003
assS'HCN'
p360
(dp361
S'ih'
p362
(lp363
F0
aF0
aF0
asS'iHCN'
p364
(lp365
F0
aF0
aF0
asS'm'
(lp366
F0
aF0
aF0
asS'gmax'
p367
(lp368
F0.0001
aF0.0001
aF0.0001
asssg205
g206
((ltRp369
sg208
(dp370
sg210
F174
sg211
(dp371
g213
(lp372
F1
aF1
aF1
asg215
F0
sg216
I0
sg217
(lp373
(F0
F0
F0
F1
tp374
a(F-0.0086359027773141861
F-0.11578992754220963
F0.075379796326160431
F1
tp375
a(F-0.13905934989452362
F-0.15926440060138702
F0.12077154219150543
F1
tp376
a(F-0.18189473450183868
F-0.3065335750579834
F0.12077154219150543
F1
tp377
a(F-0.27995401620864868
F-0.40338024497032166
F0.17737194895744324
F1
tp378
a(F-0.37345775961875916
F-0.47245106101036072
F0.22831885516643524
F1
tp379
a(F-0.46212732791900635
F-0.58412790298461914
F0.23098991811275482
F1
tp380
a(F-0.5803753137588501
F-0.66611158847808838
F0.24790121614933014
F1
tp381
asS'L'
F1
sg222
F0.5
ssg223
S'__nrnsec_0x56510796bf40'
p382
sg225
g206
((ltRp383
sa(dp384
g58
(dp385
S'na'
p386
(dp387
S'ena'
p388
(lp389
F50
aF50
aF50
aF50
aF50
aF50
aF50
aF50
aF50
asS'dina_dv_'
p390
(lp391
F0
aF0
aF0
aF0
aF0
aF0
aF0
aF0
aF0
asS'nai'
p392
(lp393
F10
aF10
aF10
aF10
aF10
aF10
aF10
aF10
aF10
asS'nao'
p394
(lp395
F140
aF140
aF140
aF140
aF140
aF140
aF140
aF140
aF140
asS'ina'
p396
(lp397
F0
aF0
aF0
aF0
aF0
aF0
aF0
aF0
aF0
asg72
F8
ssS'k'
(dp398
S'ek'
p399
(lp400
F-90
aF-90
aF-90
aF-90
aF-90
aF-90
aF-90
aF-90
aF-90
asS'ki'
p401
(lp402
F54.399999999999999
aF54.399999999999999
aF54.399999999999999
aF54.399999999999999
aF54.399999999999999
aF54.399999999999999
aF54.399999999999999
aF54.399999999999999
aF54.399999999999999
asS'ko'
p403
(lp404
F2.5
aF2.5
aF2.5
aF2.5
aF2.5
aF2.5
aF2.5
aF2.5
aF2.5
asS'ik'
p405
(lp406
F0
aF0
aF0
aF0
aF0
aF0
aF0
aF0
aF0
asS'dik_dv_'
p407
(lp408
F0
aF0
aF0
aF0
aF0
aF0
aF0
aF0
aF0
asg72
F8
ssS'ca'
p409
(dp410
S'eca'
p411
(lp412
F132.45793416370091
aF132.45793416370091
aF132.45793416370091
aF132.45793416370091
aF132.45793416370091
aF132.45793416370091
aF132.45793416370091
aF132.45793416370091
aF132.45793416370091
asS'dica_dv_'
p413
(lp414
F0
aF0
aF0
aF0
aF0
aF0
aF0
aF0
aF0
asS'ica'
p415
(lp416
F0
aF0
aF0
aF0
aF0
aF0
aF0
aF0
aF0
asS'cai'
p417
(lp418
F5.0000000000000002e-05
aF5.0000000000000002e-05
aF5.0000000000000002e-05
aF5.0000000000000002e-05
aF5.0000000000000002e-05
aF5.0000000000000002e-05
aF5.0000000000000002e-05
aF5.0000000000000002e-05
aF5.0000000000000002e-05
asS'cao'
p419
(lp420
F2
aF2
aF2
aF2
aF2
aF2
aF2
aF2
aF2
asg72
F247
sssg96
S'GPe[0].dend[11]'
p421
sg98
(lp422
F2.3999999999999999
aF2.3999999999999999
aF2.3999999999999999
aF2.3999999999999999
aF2.3999999999999999
aF2.3999999999999999
aF2.3999999999999999
aF2.3999999999999999
aF2.3999999999999999
asg100
I9
sg101
(dp423
S'pas'
p424
(dp425
S'i'
(lp426
F0
aF0
aF0
aF0
aF0
aF0
aF0
aF0
aF0
asS'e'
(lp427
F-60
aF-60
aF-60
aF-60
aF-60
aF-60
aF-60
aF-60
aF-60
asS'g'
(lp428
F6.802721088435374e-05
aF6.802721088435374e-05
aF6.802721088435374e-05
aF6.802721088435374e-05
aF6.802721088435374e-05
aF6.802721088435374e-05
aF6.802721088435374e-05
aF6.802721088435374e-05
aF6.802721088435374e-05
assS'Kv4s'
p429
(dp430
S'm'
(lp431
F0
aF0
aF0
aF0
aF0
aF0
aF0
aF0
aF0
asS'h'
(lp432
F0
aF0
aF0
aF0
aF0
aF0
aF0
aF0
aF0
asS'iKv4s'
p433
(lp434
F0
aF0
aF0
aF0
aF0
aF0
aF0
aF0
aF0
asS'gmax'
p435
(lp436
F0.0060000000000000001
aF0.0060000000000000001
aF0.0060000000000000001
aF0.0060000000000000001
aF0.0060000000000000001
aF0.0060000000000000001
aF0.0060000000000000001
aF0.0060000000000000001
aF0.0060000000000000001
assS'Kv4f'
p437
(dp438
S'iKv4f'
p439
(lp440
F0
aF0
aF0
aF0
aF0
aF0
aF0
aF0
aF0
asS'h'
(lp441
F0
aF0
aF0
aF0
aF0
aF0
aF0
aF0
aF0
asS'm'
(lp442
F0
aF0
aF0
aF0
aF0
aF0
aF0
aF0
aF0
asS'gmax'
p443
(lp444
F0.0040000000000000001
aF0.0040000000000000001
aF0.0040000000000000001
aF0.0040000000000000001
aF0.0040000000000000001
aF0.0040000000000000001
aF0.0040000000000000001
aF0.0040000000000000001
aF0.0040000000000000001
assS'HCN2'
p445
(dp446
S'ih'
p447
(lp448
F0
aF0
aF0
aF0
aF0
aF0
aF0
aF0
aF0
asS'iHCN'
p449
(lp450
F0
aF0
aF0
aF0
aF0
aF0
aF0
aF0
aF0
asS'm'
(lp451
F0
aF0
aF0
aF0
aF0
aF0
aF0
aF0
aF0
asS'gmax'
p452
(lp453
F0.00025000000000000001
aF0.00025000000000000001
aF0.00025000000000000001
aF0.00025000000000000001
aF0.00025000000000000001
aF0.00025000000000000001
aF0.00025000000000000001
aF0.00025000000000000001
aF0.00025000000000000001
assS'KCNQ'
p454
(dp455
S'iKCNQ'
p456
(lp457
F0
aF0
aF0
aF0
aF0
aF0
aF0
aF0
aF0
asS'm'
(lp458
F0
aF0
aF0
aF0
aF0
aF0
aF0
aF0
aF0
asS'gmax'
p459
(lp460
F0.00020000000000000001
aF0.00020000000000000001
aF0.00020000000000000001
aF0.00020000000000000001
aF0.00020000000000000001
aF0.00020000000000000001
aF0.00020000000000000001
aF0.00020000000000000001
aF0.00020000000000000001
assS'SK'
p461
(dp462
S'iSK'
p463
(lp464
F0
aF0
aF0
aF0
aF0
aF0
aF0
aF0
aF0
asS'm'
(lp465
F0
aF0
aF0
aF0
aF0
aF0
aF0
aF0
aF0
asS'gmax'
p466
(lp467
F4.0000000000000003e-05
aF4.0000000000000003e-05
aF4.0000000000000003e-05
aF4.0000000000000003e-05
aF4.0000000000000003e-05
aF4.0000000000000003e-05
aF4.0000000000000003e-05
aF4.0000000000000003e-05
aF4.0000000000000003e-05
assS'Calcium'
p468
(dp469
S'tau'
p470
(lp471
F1
aF1
aF1
aF1
aF1
aF1
aF1
aF1
aF1
asS'depth'
p472
(lp473
F1600000000000
aF1600000000000
aF1600000000000
aF1600000000000
aF1600000000000
aF1600000000000
aF1600000000000
aF1600000000000
aF1600000000000
asS'cai0'
p474
(lp475
F5.0000000000000002e-05
aF5.0000000000000002e-05
aF5.0000000000000002e-05
aF5.0000000000000002e-05
aF5.0000000000000002e-05
aF5.0000000000000002e-05
aF5.0000000000000002e-05
aF5.0000000000000002e-05
aF5.0000000000000002e-05
assS'NaP'
p476
(dp477
S'h'
(lp478
F0
aF0
aF0
aF0
aF0
aF0
aF0
aF0
aF0
asS's'
(lp479
F0
aF0
aF0
aF0
aF0
aF0
aF0
aF0
aF0
asS'm'
(lp480
F0
aF0
aF0
aF0
aF0
aF0
aF0
aF0
aF0
asS'iNa'
p481
(lp482
F0
aF0
aF0
aF0
aF0
aF0
aF0
aF0
aF0
asS'gmax'
p483
(lp484
F0.0001015
aF0.0001015
aF0.0001015
aF0.0001015
aF0.0001015
aF0.0001015
aF0.0001015
aF0.0001015
aF0.0001015
assS'Kv2'
p485
(dp486
S'm'
(lp487
F0
aF0
aF0
aF0
aF0
aF0
aF0
aF0
aF0
asS'h'
(lp488
F0
aF0
aF0
aF0
aF0
aF0
aF0
aF0
aF0
asS'iKv2'
p489
(lp490
F0
aF0
aF0
aF0
aF0
aF0
aF0
aF0
aF0
asS'gmax'
p491
(lp492
F0.0001
aF0.0001
aF0.0001
aF0.0001
aF0.0001
aF0.0001
aF0.0001
aF0.0001
aF0.0001
assS'Kv3'
p493
(dp494
S'h'
(lp495
F0
aF0
aF0
aF0
aF0
aF0
aF0
aF0
aF0
asS'm'
(lp496
F0
aF0
aF0
aF0
aF0
aF0
aF0
aF0
aF0
asS'iKv3'
p497
(lp498
F0
aF0
aF0
aF0
aF0
aF0
aF0
aF0
aF0
asS'gmax'
p499
(lp500
F0.001
aF0.001
aF0.001
aF0.001
aF0.001
aF0.001
aF0.001
aF0.001
aF0.001
assS'CaHVA'
p501
(dp502
S'iCaH'
p503
(lp504
F0
aF0
aF0
aF0
aF0
aF0
aF0
aF0
aF0
asS'm'
(lp505
F0
aF0
aF0
aF0
aF0
aF0
aF0
aF0
aF0
asS'gmax'
p506
(lp507
F3.0000000000000001e-05
aF3.0000000000000001e-05
aF3.0000000000000001e-05
aF3.0000000000000001e-05
aF3.0000000000000001e-05
aF3.0000000000000001e-05
aF3.0000000000000001e-05
aF3.0000000000000001e-05
aF3.0000000000000001e-05
assS'NaF'
p508
(dp509
S'h'
(lp510
F0
aF0
aF0
aF0
aF0
aF0
aF0
aF0
aF0
asS's'
(lp511
F0
aF0
aF0
aF0
aF0
aF0
aF0
aF0
aF0
asS'm'
(lp512
F0
aF0
aF0
aF0
aF0
aF0
aF0
aF0
aF0
asS'iNa'
p513
(lp514
F0
aF0
aF0
aF0
aF0
aF0
aF0
aF0
aF0
asS'gmax'
p515
(lp516
F0.035000000000000003
aF0.035000000000000003
aF0.035000000000000003
aF0.035000000000000003
aF0.035000000000000003
aF0.035000000000000003
aF0.035000000000000003
aF0.035000000000000003
aF0.035000000000000003
assS'HCN'
p517
(dp518
S'ih'
p519
(lp520
F0
aF0
aF0
aF0
aF0
aF0
aF0
aF0
aF0
asS'iHCN'
p521
(lp522
F0
aF0
aF0
aF0
aF0
aF0
aF0
aF0
aF0
asS'm'
(lp523
F0
aF0
aF0
aF0
aF0
aF0
aF0
aF0
aF0
asS'gmax'
p524
(lp525
F0.0001
aF0.0001
aF0.0001
aF0.0001
aF0.0001
aF0.0001
aF0.0001
aF0.0001
aF0.0001
asssg205
g206
((ltRp526
sg208
(dp527
sg210
F174
sg211
(dp528
g213
(lp529
F1
aF1
aF1
aF1
aF1
aF1
aF1
aF1
aF1
asg215
F0
sg216
I0
sg217
(lp530
(F0
F0
F0
F1
tp531
a(F-0.031268544495105743
F-0.039754688739776611
F-0.0010306324111297727
F1
tp532
a(F-0.065653093159198761
F-0.074247725307941437
F0.0027121906168758869
F1
tp533
a(F-0.11025959253311157
F-0.088224545121192932
F0.0027121906168758869
F1
tp534
a(F-0.14741659164428711
F-0.10179152339696884
F0.0071119661442935467
F1
tp535
a(F-0.18503168225288391
F-0.097114510834217072
F0.0081968428567051888
F1
tp536
a(F-0.22183308005332947
F-0.11656392365694046
F0.0081968428567051888
F1
tp537
a(F-0.26628890633583069
F-0.11511140316724777
F0.0081968428567051888
F1
tp538
a(F-0.30759254097938538
F-0.12382657080888748
F0.012958244420588017
F1
tp539
a(F-0.34644317626953125
F-0.13950905203819275
F0.012958244420588017
F1
tp540
a(F-0.38663783669471741
F-0.13524790108203888
F0.012958244420588017
F1
tp541
a(F-0.42368635535240173
F-0.14526492357254028
F0.012958244420588017
F1
tp542
a(F-0.46689459681510925
F-0.16115836799144745
F0.012958244420588017
F1
tp543
a(F-0.4980606734752655
F-0.1876293420791626
F0.012958244420588017
F1
tp544
a(F-0.54267919063568115
F-0.1923244446516037
F0.012958244420588017
F1
tp545
a(F-0.57910090684890747
F-0.19077548384666443
F0.038470916450023651
F1
tp546
a(F-0.61789125204086304
F-0.19495828449726105
F0.060632530599832535
F1
tp547
a(F-0.66225063800811768
F-0.1969171017408371
F0.064031802117824554
F1
tp548
a(F-0.69740664958953857
F-0.21556490659713745
F0.059583812952041626
F1
tp549
a(F-0.72667419910430908
F-0.24572446942329407
F0.066297993063926697
F1
tp550
a(F-0.76545852422714233
F-0.25483140349388123
F0.06850992888212204
F1
tp551
a(F-0.80280840396881104
F-0.2811637818813324
F0.07391020655632019
F1
tp552
a(F-0.84789103269577026
F-0.27877703309059143
F0.079979486763477325
F1
tp553
a(F-0.8914065957069397
F-0.29647254943847656
F0.082691676914691925
F1
tp554
asS'L'
F1
sg222
F0.5
ssg223
S'__nrnsec_0x56510796bb20'
p555
sg225
g206
((ltRp556
sa(dp557
g58
(dp558
S'na'
p559
(dp560
S'ena'
p561
(lp562
F50
asS'dina_dv_'
p563
(lp564
F0
asS'nai'
p565
(lp566
F10
asS'nao'
p567
(lp568
F140
asS'ina'
p569
(lp570
F0
asg72
F8
ssS'k'
(dp571
S'ek'
p572
(lp573
F-90
asS'ki'
p574
(lp575
F54.399999999999999
asS'ko'
p576
(lp577
F2.5
asS'ik'
p578
(lp579
F0
asS'dik_dv_'
p580
(lp581
F0
asg72
F8
ssS'ca'
p582
(dp583
S'eca'
p584
(lp585
F132.45793416370091
asS'dica_dv_'
p586
(lp587
F0
asS'ica'
p588
(lp589
F0
asS'cai'
p590
(lp591
F5.0000000000000002e-05
asS'cao'
p592
(lp593
F2
asg72
F247
sssg96
S'GPe[0].dend[0]'
p594
sg98
(lp595
F2.3999999999999999
asg100
I1
sg101
(dp596
S'pas'
p597
(dp598
S'i'
(lp599
F0
asS'e'
(lp600
F-60
asS'g'
(lp601
F6.802721088435374e-05
assS'Kv4s'
p602
(dp603
S'm'
(lp604
F0
asS'h'
(lp605
F0
asS'iKv4s'
p606
(lp607
F0
asS'gmax'
p608
(lp609
F0.0060000000000000001
assS'Kv4f'
p610
(dp611
S'iKv4f'
p612
(lp613
F0
asS'h'
(lp614
F0
asS'm'
(lp615
F0
asS'gmax'
p616
(lp617
F0.0040000000000000001
assS'HCN2'
p618
(dp619
S'ih'
p620
(lp621
F0
asS'iHCN'
p622
(lp623
F0
asS'm'
(lp624
F0
asS'gmax'
p625
(lp626
F0.00025000000000000001
assS'KCNQ'
p627
(dp628
S'iKCNQ'
p629
(lp630
F0
asS'm'
(lp631
F0
asS'gmax'
p632
(lp633
F0.00020000000000000001
assS'SK'
p634
(dp635
S'iSK'
p636
(lp637
F0
asS'm'
(lp638
F0
asS'gmax'
p639
(lp640
F4.0000000000000003e-05
assS'Calcium'
p641
(dp642
S'tau'
p643
(lp644
F1
asS'depth'
p645
(lp646
F1600000000000
asS'cai0'
p647
(lp648
F5.0000000000000002e-05
assS'NaP'
p649
(dp650
S'h'
(lp651
F0
asS's'
(lp652
F0
asS'm'
(lp653
F0
asS'iNa'
p654
(lp655
F0
asS'gmax'
p656
(lp657
F0.0001015
assS'Kv2'
p658
(dp659
S'm'
(lp660
F0
asS'h'
(lp661
F0
asS'iKv2'
p662
(lp663
F0
asS'gmax'
p664
(lp665
F0.0001
assS'Kv3'
p666
(dp667
S'h'
(lp668
F0
asS'm'
(lp669
F0
asS'iKv3'
p670
(lp671
F0
asS'gmax'
p672
(lp673
F0.001
assS'CaHVA'
p674
(dp675
S'iCaH'
p676
(lp677
F0
asS'm'
(lp678
F0
asS'gmax'
p679
(lp680
F3.0000000000000001e-05
assS'NaF'
p681
(dp682
S'h'
(lp683
F0
asS's'
(lp684
F0
asS'm'
(lp685
F0
asS'iNa'
p686
(lp687
F0
asS'gmax'
p688
(lp689
F0.035000000000000003
assS'HCN'
p690
(dp691
S'ih'
p692
(lp693
F0
asS'iHCN'
p694
(lp695
F0
asS'm'
(lp696
F0
asS'gmax'
p697
(lp698
F0.0001
asssg205
g206
((ltRp699
sg208
(dp700
sg210
F174
sg211
(dp701
g213
(lp702
F1
asg215
F0
sg216
I0
sg217
(lp703
(F0
F0
F0
F1
tp704
a(F-0.13508066534996033
F0.19700303673744202
F0.13420677185058594
F1
tp705
a(F-0.18039886653423309
F0.54001057147979736
F0.11510571092367172
F1
tp706
a(F-0.34831336140632629
F0.86266857385635376
F0.0068663926795125008
F1
tp707
asS'L'
F1
sg222
F0.5
ssg223
S'__nrnsec_0x56510796b700'
p708
sg225
g206
((ltRp709
sa(dp710
g58
(dp711
S'na'
p712
(dp713
S'ena'
p714
(lp715
F50
aF50
aF50
asS'dina_dv_'
p716
(lp717
F0
aF0
aF0
asS'nai'
p718
(lp719
F10
aF10
aF10
asS'nao'
p720
(lp721
F140
aF140
aF140
asS'ina'
p722
(lp723
F0
aF0
aF0
asg72
F8
ssS'k'
(dp724
S'ek'
p725
(lp726
F-90
aF-90
aF-90
asS'ki'
p727
(lp728
F54.399999999999999
aF54.399999999999999
aF54.399999999999999
asS'ko'
p729
(lp730
F2.5
aF2.5
aF2.5
asS'ik'
p731
(lp732
F0
aF0
aF0
asS'dik_dv_'
p733
(lp734
F0
aF0
aF0
asg72
F8
sssg96
S'GPe[0].axon[0]'
p735
sg98
(lp736
F2.3999999999999999
aF2.3999999999999999
aF2.3999999999999999
asg100
I3
sg101
(dp737
S'pas'
p738
(dp739
S'i'
(lp740
F0
aF0
aF0
asS'e'
(lp741
F-60
aF-60
aF-60
asS'g'
(lp742
F6.802721088435374e-05
aF6.802721088435374e-05
aF6.802721088435374e-05
assS'Kv4s'
p743
(dp744
S'm'
(lp745
F0
aF0
aF0
asS'h'
(lp746
F0
aF0
aF0
asS'iKv4s'
p747
(lp748
F0
aF0
aF0
asS'gmax'
p749
(lp750
F0.24000000000000002
aF0.24000000000000002
aF0.24000000000000002
assS'KCNQ'
p751
(dp752
S'iKCNQ'
p753
(lp754
F0
aF0
aF0
asS'm'
(lp755
F0
aF0
aF0
asS'gmax'
p756
(lp757
F4.0000000000000003e-05
aF4.0000000000000003e-05
aF4.0000000000000003e-05
assS'Kv4f'
p758
(dp759
S'iKv4f'
p760
(lp761
F0
aF0
aF0
asS'h'
(lp762
F0
aF0
aF0
asS'm'
(lp763
F0
aF0
aF0
asS'gmax'
p764
(lp765
F0.16
aF0.16
aF0.16
assS'NaP'
p766
(dp767
S'h'
(lp768
F0
aF0
aF0
asS's'
(lp769
F0
aF0
aF0
asS'm'
(lp770
F0
aF0
aF0
asS'iNa'
p771
(lp772
F0
aF0
aF0
asS'gmax'
p773
(lp774
F0.0040000000000000001
aF0.0040000000000000001
aF0.0040000000000000001
assS'Kv2'
p775
(dp776
S'm'
(lp777
F0
aF0
aF0
asS'h'
(lp778
F0
aF0
aF0
asS'iKv2'
p779
(lp780
F0
aF0
aF0
asS'gmax'
p781
(lp782
F0.064000000000000001
aF0.064000000000000001
aF0.064000000000000001
assS'Kv3'
p783
(dp784
S'h'
(lp785
F0
aF0
aF0
asS'm'
(lp786
F0
aF0
aF0
asS'iKv3'
p787
(lp788
F0
aF0
aF0
asS'gmax'
p789
(lp790
F0.128
aF0.128
aF0.128
assS'NaF'
p791
(dp792
S'h'
(lp793
F0
aF0
aF0
asS's'
(lp794
F0
aF0
aF0
asS'm'
(lp795
F0
aF0
aF0
asS'iNa'
p796
(lp797
F0
aF0
aF0
asS'gmax'
p798
(lp799
F0.5
aF0.5
aF0.5
asssg205
g206
((ltRp800
sg208
(dp801
sg210
F174
sg211
(dp802
g213
(lp803
F1
aF1
aF1
asg215
F0
sg216
I0
sg217
(lp804
(F0
F0
F0
F1
tp805
a(F-1
F0
F0
F1
tp806
asS'L'
F1
sg222
F0.5
ssg223
S'__nrnsec_0x56510796b6a0'
p807
sg225
g206
((ltRp808
sa(dp809
g58
(dp810
S'na'
p811
(dp812
S'ena'
p813
(lp814
F50
aF50
aF50
aF50
aF50
aF50
aF50
aF50
aF50
aF50
aF50
aF50
aF50
aF50
aF50
asS'dina_dv_'
p815
(lp816
F0
aF0
aF0
aF0
aF0
aF0
aF0
aF0
aF0
aF0
aF0
aF0
aF0
aF0
aF0
asS'nai'
p817
(lp818
F10
aF10
aF10
aF10
aF10
aF10
aF10
aF10
aF10
aF10
aF10
aF10
aF10
aF10
aF10
asS'nao'
p819
(lp820
F140
aF140
aF140
aF140
aF140
aF140
aF140
aF140
aF140
aF140
aF140
aF140
aF140
aF140
aF140
asS'ina'
p821
(lp822
F0
aF0
aF0
aF0
aF0
aF0
aF0
aF0
aF0
aF0
aF0
aF0
aF0
aF0
aF0
asg72
F8
ssS'k'
(dp823
S'ek'
p824
(lp825
F-90
aF-90
aF-90
aF-90
aF-90
aF-90
aF-90
aF-90
aF-90
aF-90
aF-90
aF-90
aF-90
aF-90
aF-90
asS'ki'
p826
(lp827
F54.399999999999999
aF54.399999999999999
aF54.399999999999999
aF54.399999999999999
aF54.399999999999999
aF54.399999999999999
aF54.399999999999999
aF54.399999999999999
aF54.399999999999999
aF54.399999999999999
aF54.399999999999999
aF54.399999999999999
aF54.399999999999999
aF54.399999999999999
aF54.399999999999999
asS'ko'
p828
(lp829
F2.5
aF2.5
aF2.5
aF2.5
aF2.5
aF2.5
aF2.5
aF2.5
aF2.5
aF2.5
aF2.5
aF2.5
aF2.5
aF2.5
aF2.5
asS'ik'
p830
(lp831
F0
aF0
aF0
aF0
aF0
aF0
aF0
aF0
aF0
aF0
aF0
aF0
aF0
aF0
aF0
asS'dik_dv_'
p832
(lp833
F0
aF0
aF0
aF0
aF0
aF0
aF0
aF0
aF0
aF0
aF0
aF0
aF0
aF0
aF0
asg72
F8
ssS'ca'
p834
(dp835
S'eca'
p836
(lp837
F132.45793416370091
aF132.45793416370091
aF132.45793416370091
aF132.45793416370091
aF132.45793416370091
aF132.45793416370091
aF132.45793416370091
aF132.45793416370091
aF132.45793416370091
aF132.45793416370091
aF132.45793416370091
aF132.45793416370091
aF132.45793416370091
aF132.45793416370091
aF132.45793416370091
asS'dica_dv_'
p838
(lp839
F0
aF0
aF0
aF0
aF0
aF0
aF0
aF0
aF0
aF0
aF0
aF0
aF0
aF0
aF0
asS'ica'
p840
(lp841
F0
aF0
aF0
aF0
aF0
aF0
aF0
aF0
aF0
aF0
aF0
aF0
aF0
aF0
aF0
asS'cai'
p842
(lp843
F5.0000000000000002e-05
aF5.0000000000000002e-05
aF5.0000000000000002e-05
aF5.0000000000000002e-05
aF5.0000000000000002e-05
aF5.0000000000000002e-05
aF5.0000000000000002e-05
aF5.0000000000000002e-05
aF5.0000000000000002e-05
aF5.0000000000000002e-05
aF5.0000000000000002e-05
aF5.0000000000000002e-05
aF5.0000000000000002e-05
aF5.0000000000000002e-05
aF5.0000000000000002e-05
asS'cao'
p844
(lp845
F2
aF2
aF2
aF2
aF2
aF2
aF2
aF2
aF2
aF2
aF2
aF2
aF2
aF2
aF2
asg72
F247
sssg96
S'GPe[0].dend[34]'
p846
sg98
(lp847
F2.3999999999999999
aF2.3999999999999999
aF2.3999999999999999
aF2.3999999999999999
aF2.3999999999999999
aF2.3999999999999999
aF2.3999999999999999
aF2.3999999999999999
aF2.3999999999999999
aF2.3999999999999999
aF2.3999999999999999
aF2.3999999999999999
aF2.3999999999999999
aF2.3999999999999999
aF2.3999999999999999
asg100
I15
sg101
(dp848
S'pas'
p849
(dp850
S'i'
(lp851
F0
aF0
aF0
aF0
aF0
aF0
aF0
aF0
aF0
aF0
aF0
aF0
aF0
aF0
aF0
asS'e'
(lp852
F-60
aF-60
aF-60
aF-60
aF-60
aF-60
aF-60
aF-60
aF-60
aF-60
aF-60
aF-60
aF-60
aF-60
aF-60
asS'g'
(lp853
F6.802721088435374e-05
aF6.802721088435374e-05
aF6.802721088435374e-05
aF6.802721088435374e-05
aF6.802721088435374e-05
aF6.802721088435374e-05
aF6.802721088435374e-05
aF6.802721088435374e-05
aF6.802721088435374e-05
aF6.802721088435374e-05
aF6.802721088435374e-05
aF6.802721088435374e-05
aF6.802721088435374e-05
aF6.802721088435374e-05
aF6.802721088435374e-05
assS'Kv4s'
p854
(dp855
S'm'
(lp856
F0
aF0
aF0
aF0
aF0
aF0
aF0
aF0
aF0
aF0
aF0
aF0
aF0
aF0
aF0
asS'h'
(lp857
F0
aF0
aF0
aF0
aF0
aF0
aF0
aF0
aF0
aF0
aF0
aF0
aF0
aF0
aF0
asS'iKv4s'
p858
(lp859
F0
aF0
aF0
aF0
aF0
aF0
aF0
aF0
aF0
aF0
aF0
aF0
aF0
aF0
aF0
asS'gmax'
p860
(lp861
F0.0060000000000000001
aF0.0060000000000000001
aF0.0060000000000000001
aF0.0060000000000000001
aF0.0060000000000000001
aF0.0060000000000000001
aF0.0060000000000000001
aF0.0060000000000000001
aF0.0060000000000000001
aF0.0060000000000000001
aF0.0060000000000000001
aF0.0060000000000000001
aF0.0060000000000000001
aF0.0060000000000000001
aF0.0060000000000000001
assS'Kv4f'
p862
(dp863
S'iKv4f'
p864
(lp865
F0
aF0
aF0
aF0
aF0
aF0
aF0
aF0
aF0
aF0
aF0
aF0
aF0
aF0
aF0
asS'h'
(lp866
F0
aF0
aF0
aF0
aF0
aF0
aF0
aF0
aF0
aF0
aF0
aF0
aF0
aF0
aF0
asS'm'
(lp867
F0
aF0
aF0
aF0
aF0
aF0
aF0
aF0
aF0
aF0
aF0
aF0
aF0
aF0
aF0
asS'gmax'
p868
(lp869
F0.0040000000000000001
aF0.0040000000000000001
aF0.0040000000000000001
aF0.0040000000000000001
aF0.0040000000000000001
aF0.0040000000000000001
aF0.0040000000000000001
aF0.0040000000000000001
aF0.0040000000000000001
aF0.0040000000000000001
aF0.0040000000000000001
aF0.0040000000000000001
aF0.0040000000000000001
aF0.0040000000000000001
aF0.0040000000000000001
assS'HCN2'
p870
(dp871
S'ih'
p872
(lp873
F0
aF0
aF0
aF0
aF0
aF0
aF0
aF0
aF0
aF0
aF0
aF0
aF0
aF0
aF0
asS'iHCN'
p874
(lp875
F0
aF0
aF0
aF0
aF0
aF0
aF0
aF0
aF0
aF0
aF0
aF0
aF0
aF0
aF0
asS'm'
(lp876
F0
aF0
aF0
aF0
aF0
aF0
aF0
aF0
aF0
aF0
aF0
aF0
aF0
aF0
aF0
asS'gmax'
p877
(lp878
F0.00025000000000000001
aF0.00025000000000000001
aF0.00025000000000000001
aF0.00025000000000000001
aF0.00025000000000000001
aF0.00025000000000000001
aF0.00025000000000000001
aF0.00025000000000000001
aF0.00025000000000000001
aF0.00025000000000000001
aF0.00025000000000000001
aF0.00025000000000000001
aF0.00025000000000000001
aF0.00025000000000000001
aF0.00025000000000000001
assS'KCNQ'
p879
(dp880
S'iKCNQ'
p881
(lp882
F0
aF0
aF0
aF0
aF0
aF0
aF0
aF0
aF0
aF0
aF0
aF0
aF0
aF0
aF0
asS'm'
(lp883
F0
aF0
aF0
aF0
aF0
aF0
aF0
aF0
aF0
aF0
aF0
aF0
aF0
aF0
aF0
asS'gmax'
p884
(lp885
F0.00020000000000000001
aF0.00020000000000000001
aF0.00020000000000000001
aF0.00020000000000000001
aF0.00020000000000000001
aF0.00020000000000000001
aF0.00020000000000000001
aF0.00020000000000000001
aF0.00020000000000000001
aF0.00020000000000000001
aF0.00020000000000000001
aF0.00020000000000000001
aF0.00020000000000000001
aF0.00020000000000000001
aF0.00020000000000000001
assS'SK'
p886
(dp887
S'iSK'
p888
(lp889
F0
aF0
aF0
aF0
aF0
aF0
aF0
aF0
aF0
aF0
aF0
aF0
aF0
aF0
aF0
asS'm'
(lp890
F0
aF0
aF0
aF0
aF0
aF0
aF0
aF0
aF0
aF0
aF0
aF0
aF0
aF0
aF0
asS'gmax'
p891
(lp892
F4.0000000000000003e-05
aF4.0000000000000003e-05
aF4.0000000000000003e-05
aF4.0000000000000003e-05
aF4.0000000000000003e-05
aF4.0000000000000003e-05
aF4.0000000000000003e-05
aF4.0000000000000003e-05
aF4.0000000000000003e-05
aF4.0000000000000003e-05
aF4.0000000000000003e-05
aF4.0000000000000003e-05
aF4.0000000000000003e-05
aF4.0000000000000003e-05
aF4.0000000000000003e-05
assS'Calcium'
p893
(dp894
S'tau'
p895
(lp896
F1
aF1
aF1
aF1
aF1
aF1
aF1
aF1
aF1
aF1
aF1
aF1
aF1
aF1
aF1
asS'depth'
p897
(lp898
F1600000000000
aF1600000000000
aF1600000000000
aF1600000000000
aF1600000000000
aF1600000000000
aF1600000000000
aF1600000000000
aF1600000000000
aF1600000000000
aF1600000000000
aF1600000000000
aF1600000000000
aF1600000000000
aF1600000000000
asS'cai0'
p899
(lp900
F5.0000000000000002e-05
aF5.0000000000000002e-05
aF5.0000000000000002e-05
aF5.0000000000000002e-05
aF5.0000000000000002e-05
aF5.0000000000000002e-05
aF5.0000000000000002e-05
aF5.0000000000000002e-05
aF5.0000000000000002e-05
aF5.0000000000000002e-05
aF5.0000000000000002e-05
aF5.0000000000000002e-05
aF5.0000000000000002e-05
aF5.0000000000000002e-05
aF5.0000000000000002e-05
assS'NaP'
p901
(dp902
S'h'
(lp903
F0
aF0
aF0
aF0
aF0
aF0
aF0
aF0
aF0
aF0
aF0
aF0
aF0
aF0
aF0
asS's'
(lp904
F0
aF0
aF0
aF0
aF0
aF0
aF0
aF0
aF0
aF0
aF0
aF0
aF0
aF0
aF0
asS'm'
(lp905
F0
aF0
aF0
aF0
aF0
aF0
aF0
aF0
aF0
aF0
aF0
aF0
aF0
aF0
aF0
asS'iNa'
p906
(lp907
F0
aF0
aF0
aF0
aF0
aF0
aF0
aF0
aF0
aF0
aF0
aF0
aF0
aF0
aF0
asS'gmax'
p908
(lp909
F0.0001015
aF0.0001015
aF0.0001015
aF0.0001015
aF0.0001015
aF0.0001015
aF0.0001015
aF0.0001015
aF0.0001015
aF0.0001015
aF0.0001015
aF0.0001015
aF0.0001015
aF0.0001015
aF0.0001015
assS'Kv2'
p910
(dp911
S'm'
(lp912
F0
aF0
aF0
aF0
aF0
aF0
aF0
aF0
aF0
aF0
aF0
aF0
aF0
aF0
aF0
asS'h'
(lp913
F0
aF0
aF0
aF0
aF0
aF0
aF0
aF0
aF0
aF0
aF0
aF0
aF0
aF0
aF0
asS'iKv2'
p914
(lp915
F0
aF0
aF0
aF0
aF0
aF0
aF0
aF0
aF0
aF0
aF0
aF0
aF0
aF0
aF0
asS'gmax'
p916
(lp917
F0.0001
aF0.0001
aF0.0001
aF0.0001
aF0.0001
aF0.0001
aF0.0001
aF0.0001
aF0.0001
aF0.0001
aF0.0001
aF0.0001
aF0.0001
aF0.0001
aF0.0001
assS'Kv3'
p918
(dp919
S'h'
(lp920
F0
aF0
aF0
aF0
aF0
aF0
aF0
aF0
aF0
aF0
aF0
aF0
aF0
aF0
aF0
asS'm'
(lp921
F0
aF0
aF0
aF0
aF0
aF0
aF0
aF0
aF0
aF0
aF0
aF0
aF0
aF0
aF0
asS'iKv3'
p922
(lp923
F0
aF0
aF0
aF0
aF0
aF0
aF0
aF0
aF0
aF0
aF0
aF0
aF0
aF0
aF0
asS'gmax'
p924
(lp925
F0.001
aF0.001
aF0.001
aF0.001
aF0.001
aF0.001
aF0.001
aF0.001
aF0.001
aF0.001
aF0.001
aF0.001
aF0.001
aF0.001
aF0.001
assS'CaHVA'
p926
(dp927
S'iCaH'
p928
(lp929
F0
aF0
aF0
aF0
aF0
aF0
aF0
aF0
aF0
aF0
aF0
aF0
aF0
aF0
aF0
asS'm'
(lp930
F0
aF0
aF0
aF0
aF0
aF0
aF0
aF0
aF0
aF0
aF0
aF0
aF0
aF0
aF0
asS'gmax'
p931
(lp932
F8.9999999999999992e-05
aF8.9999999999999992e-05
aF8.9999999999999992e-05
aF8.9999999999999992e-05
aF8.9999999999999992e-05
aF8.9999999999999992e-05
aF8.9999999999999992e-05
aF8.9999999999999992e-05
aF8.9999999999999992e-05
aF8.9999999999999992e-05
aF8.9999999999999992e-05
aF8.9999999999999992e-05
aF8.9999999999999992e-05
aF8.9999999999999992e-05
aF8.9999999999999992e-05
assS'NaF'
p933
(dp934
S'h'
(lp935
F0
aF0
aF0
aF0
aF0
aF0
aF0
aF0
aF0
aF0
aF0
aF0
aF0
aF0
aF0
asS's'
(lp936
F0
aF0
aF0
aF0
aF0
aF0
aF0
aF0
aF0
aF0
aF0
aF0
aF0
aF0
aF0
asS'm'
(lp937
F0
aF0
aF0
aF0
aF0
aF0
aF0
aF0
aF0
aF0
aF0
aF0
aF0
aF0
aF0
asS'iNa'
p938
(lp939
F0
aF0
aF0
aF0
aF0
aF0
aF0
aF0
aF0
aF0
aF0
aF0
aF0
aF0
aF0
asS'gmax'
p940
(lp941
F0.035000000000000003
aF0.035000000000000003
aF0.035000000000000003
aF0.035000000000000003
aF0.035000000000000003
aF0.035000000000000003
aF0.035000000000000003
aF0.035000000000000003
aF0.035000000000000003
aF0.035000000000000003
aF0.035000000000000003
aF0.035000000000000003
aF0.035000000000000003
aF0.035000000000000003
aF0.035000000000000003
assS'HCN'
p942
(dp943
S'ih'
p944
(lp945
F0
aF0
aF0
aF0
aF0
aF0
aF0
aF0
aF0
aF0
aF0
aF0
aF0
aF0
aF0
asS'iHCN'
p946
(lp947
F0
aF0
aF0
aF0
aF0
aF0
aF0
aF0
aF0
aF0
aF0
aF0
aF0
aF0
aF0
asS'm'
(lp948
F0
aF0
aF0
aF0
aF0
aF0
aF0
aF0
aF0
aF0
aF0
aF0
aF0
aF0
aF0
asS'gmax'
p949
(lp950
F0.0001
aF0.0001
aF0.0001
aF0.0001
aF0.0001
aF0.0001
aF0.0001
aF0.0001
aF0.0001
aF0.0001
aF0.0001
aF0.0001
aF0.0001
aF0.0001
aF0.0001
asssg205
g206
((ltRp951
sg208
(dp952
sg210
F174
sg211
(dp953
g213
(lp954
F1
aF1
aF1
aF1
aF1
aF1
aF1
aF1
aF1
aF1
aF1
aF1
aF1
aF1
aF1
asg215
F0
sg216
I1
sg217
(lp955
(F-35.416999816894531
F-40.648998260498047
F15.128000259399414
F1
tp956
a(F-35.420845031738281
F-40.676952362060547
F15.128253936767578
F1
tp957
a(F-35.417808532714844
F-40.705417633056641
F15.135006904602051
F1
tp958
a(F-35.405982971191406
F-40.729282379150391
F15.139043807983398
F1
tp959
a(F-35.405479431152344
F-40.752117156982422
F15.145923614501953
F1
tp960
a(F-35.400680541992188
F-40.774997711181641
F15.147824287414551
F1
tp961
a(F-35.387687683105469
F-40.795234680175781
F15.150496482849121
F1
tp962
a(F-35.395404815673828
F-40.815467834472656
F15.157016754150391
F1
tp963
a(F-35.392242431640625
F-40.841365814208984
F15.159424781799316
F1
tp964
a(F-35.385593414306641
F-40.866722106933594
F15.164040565490723
F1
tp965
a(F-35.389881134033203
F-40.891033172607422
F15.169364929199219
F1
tp966
a(F-35.389453887939453
F-40.917106628417969
F15.176209449768066
F1
tp967
a(F-35.391109466552734
F-40.938610076904297
F15.181092262268066
F1
tp968
a(F-35.396633148193359
F-40.955318450927734
F15.187644004821777
F1
tp969
a(F-35.392364501953125
F-40.976921081542969
F15.194435119628906
F1
tp970
a(F-35.388706207275391
F-40.994087219238281
F15.201642990112305
F1
tp971
a(F-35.377487182617188
F-41.014289855957031
F15.211402893066406
F1
tp972
a(F-35.382320404052734
F-41.036373138427734
F15.218345642089844
F1
tp973
a(F-35.395572662353516
F-41.056610107421875
F15.223000526428223
F1
tp974
a(F-35.391204833984375
F-41.079292297363281
F15.227513313293457
F1
tp975
a(F-35.385723114013672
F-41.101947784423828
F15.229188919067383
F1
tp976
a(F-35.375118255615234
F-41.120677947998047
F15.233014106750488
F1
tp977
a(F-35.368751525878906
F-41.140220642089844
F15.236931800842285
F1
tp978
a(F-35.360752105712891
F-41.158847808837891
F15.242661476135254
F1
tp979
a(F-35.349220275878906
F-41.177402496337891
F15.242993354797363
F1
tp980
a(F-35.331214904785156
F-41.189804077148438
F15.242993354797363
F1
tp981
a(F-35.317672729492188
F-41.205398559570312
F15.242993354797363
F1
tp982
a(F-35.308647155761719
F-41.2232666015625
F15.241096496582031
F1
tp983
a(F-35.301704406738281
F-41.242191314697266
F15.240207672119141
F1
tp984
a(F-35.302993774414062
F-41.260822296142578
F15.234118461608887
F1
tp985
a(F-35.308303833007812
F-41.278995513916016
F15.226025581359863
F1
tp986
a(F-35.304370880126953
F-41.295269012451172
F15.216195106506348
F1
tp987
a(F-35.295818328857422
F-41.311988830566406
F15.21271800994873
F1
tp988
a(F-35.293632507324219
F-41.328872680664062
F15.203433990478516
F1
tp989
a(F-35.289527893066406
F-41.339515686035156
F15.191449165344238
F1
tp990
a(F-35.293979644775391
F-41.356273651123047
F15.185412406921387
F1
tp991
a(F-35.298091888427734
F-41.372097015380859
F15.178285598754883
F1
tp992
a(F-35.288101196289062
F-41.381473541259766
F15.167823791503906
F1
tp993
a(F-35.279548645019531
F-41.396762847900391
F15.161406517028809
F1
tp994
a(F-35.282463073730469
F-41.404693603515625
F15.155200958251953
F1
tp995
a(F-35.269138336181641
F-41.418117523193359
F15.150232315063477
F1
tp996
a(F-35.271087646484375
F-41.431400299072266
F15.13852596282959
F1
tp997
a(F-35.264244079589844
F-41.446170806884766
F15.132055282592773
F1
tp998
a(F-35.246810913085938
F-41.446453094482422
F15.123392105102539
F1
tp999
a(F-35.248153686523438
F-41.464141845703125
F15.117563247680664
F1
tp1000
a(F-35.246780395507812
F-41.481582641601562
F15.112150192260742
F1
tp1001
a(F-35.251003265380859
F-41.496246337890625
F15.10450553894043
F1
tp1002
a(F-35.261520385742188
F-41.508853912353516
F15.095094680786133
F1
tp1003
asS'L'
F1
sg222
F1
ssg223
S'__nrnsec_0x56510796c3c0'
p1004
sg225
g206
((ltRp1005
sa(dp1006
g58
(dp1007
S'na'
p1008
(dp1009
S'ena'
p1010
(lp1011
F50
asS'dina_dv_'
p1012
(lp1013
F0
asS'nai'
p1014
(lp1015
F10
asS'nao'
p1016
(lp1017
F140
asS'ina'
p1018
(lp1019
F0
asg72
F8
ssS'k'
(dp1020
S'ek'
p1021
(lp1022
F-90
asS'ki'
p1023
(lp1024
F54.399999999999999
asS'ko'
p1025
(lp1026
F2.5
asS'ik'
p1027
(lp1028
F0
asS'dik_dv_'
p1029
(lp1030
F0
asg72
F8
ssS'ca'
p1031
(dp1032
S'eca'
p1033
(lp1034
F132.45793416370091
asS'dica_dv_'
p1035
(lp1036
F0
asS'ica'
p1037
(lp1038
F0
asS'cai'
p1039
(lp1040
F5.0000000000000002e-05
asS'cao'
p1041
(lp1042
F2
asg72
F247
sssg96
S'GPe[0].dend[23]'
p1043
sg98
(lp1044
F2.3999999999999999
asg100
I1
sg101
(dp1045
S'pas'
p1046
(dp1047
S'i'
(lp1048
F0
asS'e'
(lp1049
F-60
asS'g'
(lp1050
F6.802721088435374e-05
assS'Kv4s'
p1051
(dp1052
S'm'
(lp1053
F0
asS'h'
(lp1054
F0
asS'iKv4s'
p1055
(lp1056
F0
asS'gmax'
p1057
(lp1058
F0.0060000000000000001
assS'Kv4f'
p1059
(dp1060
S'iKv4f'
p1061
(lp1062
F0
asS'h'
(lp1063
F0
asS'm'
(lp1064
F0
asS'gmax'
p1065
(lp1066
F0.0040000000000000001
assS'HCN2'
p1067
(dp1068
S'ih'
p1069
(lp1070
F0
asS'iHCN'
p1071
(lp1072
F0
asS'm'
(lp1073
F0
asS'gmax'
p1074
(lp1075
F0.00025000000000000001
assS'KCNQ'
p1076
(dp1077
S'iKCNQ'
p1078
(lp1079
F0
asS'm'
(lp1080
F0
asS'gmax'
p1081
(lp1082
F0.00020000000000000001
assS'SK'
p1083
(dp1084
S'iSK'
p1085
(lp1086
F0
asS'm'
(lp1087
F0
asS'gmax'
p1088
(lp1089
F4.0000000000000003e-05
assS'Calcium'
p1090
(dp1091
S'tau'
p1092
(lp1093
F1
asS'depth'
p1094
(lp1095
F1600000000000
asS'cai0'
p1096
(lp1097
F5.0000000000000002e-05
assS'NaP'
p1098
(dp1099
S'h'
(lp1100
F0
asS's'
(lp1101
F0
asS'm'
(lp1102
F0
asS'iNa'
p1103
(lp1104
F0
asS'gmax'
p1105
(lp1106
F0.0001015
assS'Kv2'
p1107
(dp1108
S'm'
(lp1109
F0
asS'h'
(lp1110
F0
asS'iKv2'
p1111
(lp1112
F0
asS'gmax'
p1113
(lp1114
F0.0001
assS'Kv3'
p1115
(dp1116
S'h'
(lp1117
F0
asS'm'
(lp1118
F0
asS'iKv3'
p1119
(lp1120
F0
asS'gmax'
p1121
(lp1122
F0.001
assS'CaHVA'
p1123
(dp1124
S'iCaH'
p1125
(lp1126
F0
asS'm'
(lp1127
F0
asS'gmax'
p1128
(lp1129
F3.0000000000000001e-05
assS'NaF'
p1130
(dp1131
S'h'
(lp1132
F0
asS's'
(lp1133
F0
asS'm'
(lp1134
F0
asS'iNa'
p1135
(lp1136
F0
asS'gmax'
p1137
(lp1138
F0.035000000000000003
assS'HCN'
p1139
(dp1140
S'ih'
p1141
(lp1142
F0
asS'iHCN'
p1143
(lp1144
F0
asS'm'
(lp1145
F0
asS'gmax'
p1146
(lp1147
F0.0001
asssg205
g206
((ltRp1148
sg208
(dp1149
sg210
F174
sg211
(dp1150
g213
(lp1151
F1
asg215
F0
sg216
I1
sg217
(lp1152
(F-35.416999816894531
F-40.648998260498047
F15.128000259399414
F1
tp1153
a(F-35.664520263671875
F-40.854545593261719
F15.238748550415039
F1
tp1154
a(F-35.959850311279297
F-40.970352172851562
F15.300261497497559
F1
tp1155
a(F-36.153205871582031
F-41.241558074951172
F15.348849296569824
F1
tp1156
asS'L'
F1
sg222
F1
ssg223
S'__nrnsec_0x56510796bfa0'
p1157
sg225
g206
((ltRp1158
sa(dp1159
g58
(dp1160
S'na'
p1161
(dp1162
S'ena'
p1163
(lp1164
F50
aF50
aF50
asS'dina_dv_'
p1165
(lp1166
F0
aF0
aF0
asS'nai'
p1167
(lp1168
F10
aF10
aF10
asS'nao'
p1169
(lp1170
F140
aF140
aF140
asS'ina'
p1171
(lp1172
F0
aF0
aF0
asg72
F8
ssS'k'
(dp1173
S'ek'
p1174
(lp1175
F-90
aF-90
aF-90
asS'ki'
p1176
(lp1177
F54.399999999999999
aF54.399999999999999
aF54.399999999999999
asS'ko'
p1178
(lp1179
F2.5
aF2.5
aF2.5
asS'ik'
p1180
(lp1181
F0
aF0
aF0
asS'dik_dv_'
p1182
(lp1183
F0
aF0
aF0
asg72
F8
ssS'ca'
p1184
(dp1185
S'eca'
p1186
(lp1187
F132.45793416370091
aF132.45793416370091
aF132.45793416370091
asS'dica_dv_'
p1188
(lp1189
F0
aF0
aF0
asS'ica'
p1190
(lp1191
F0
aF0
aF0
asS'cai'
p1192
(lp1193
F5.0000000000000002e-05
aF5.0000000000000002e-05
aF5.0000000000000002e-05
asS'cao'
p1194
(lp1195
F2
aF2
aF2
asg72
F247
sssg96
S'GPe[0].dend[17]'
p1196
sg98
(lp1197
F2.3999999999999999
aF2.3999999999999999
aF2.3999999999999999
asg100
I3
sg101
(dp1198
S'pas'
p1199
(dp1200
S'i'
(lp1201
F0
aF0
aF0
asS'e'
(lp1202
F-60
aF-60
aF-60
asS'g'
(lp1203
F6.802721088435374e-05
aF6.802721088435374e-05
aF6.802721088435374e-05
assS'Kv4s'
p1204
(dp1205
S'm'
(lp1206
F0
aF0
aF0
asS'h'
(lp1207
F0
aF0
aF0
asS'iKv4s'
p1208
(lp1209
F0
aF0
aF0
asS'gmax'
p1210
(lp1211
F0.0060000000000000001
aF0.0060000000000000001
aF0.0060000000000000001
assS'Kv4f'
p1212
(dp1213
S'iKv4f'
p1214
(lp1215
F0
aF0
aF0
asS'h'
(lp1216
F0
aF0
aF0
asS'm'
(lp1217
F0
aF0
aF0
asS'gmax'
p1218
(lp1219
F0.0040000000000000001
aF0.0040000000000000001
aF0.0040000000000000001
assS'HCN2'
p1220
(dp1221
S'ih'
p1222
(lp1223
F0
aF0
aF0
asS'iHCN'
p1224
(lp1225
F0
aF0
aF0
asS'm'
(lp1226
F0
aF0
aF0
asS'gmax'
p1227
(lp1228
F0.00025000000000000001
aF0.00025000000000000001
aF0.00025000000000000001
assS'KCNQ'
p1229
(dp1230
S'iKCNQ'
p1231
(lp1232
F0
aF0
aF0
asS'm'
(lp1233
F0
aF0
aF0
asS'gmax'
p1234
(lp1235
F0.00020000000000000001
aF0.00020000000000000001
aF0.00020000000000000001
assS'SK'
p1236
(dp1237
S'iSK'
p1238
(lp1239
F0
aF0
aF0
asS'm'
(lp1240
F0
aF0
aF0
asS'gmax'
p1241
(lp1242
F4.0000000000000003e-05
aF4.0000000000000003e-05
aF4.0000000000000003e-05
assS'Calcium'
p1243
(dp1244
S'tau'
p1245
(lp1246
F1
aF1
aF1
asS'depth'
p1247
(lp1248
F1600000000000
aF1600000000000
aF1600000000000
asS'cai0'
p1249
(lp1250
F5.0000000000000002e-05
aF5.0000000000000002e-05
aF5.0000000000000002e-05
assS'NaP'
p1251
(dp1252
S'h'
(lp1253
F0
aF0
aF0
asS's'
(lp1254
F0
aF0
aF0
asS'm'
(lp1255
F0
aF0
aF0
asS'iNa'
p1256
(lp1257
F0
aF0
aF0
asS'gmax'
p1258
(lp1259
F0.0001015
aF0.0001015
aF0.0001015
assS'Kv2'
p1260
(dp1261
S'm'
(lp1262
F0
aF0
aF0
asS'h'
(lp1263
F0
aF0
aF0
asS'iKv2'
p1264
(lp1265
F0
aF0
aF0
asS'gmax'
p1266
(lp1267
F0.0001
aF0.0001
aF0.0001
assS'Kv3'
p1268
(dp1269
S'h'
(lp1270
F0
aF0
aF0
asS'm'
(lp1271
F0
aF0
aF0
asS'iKv3'
p1272
(lp1273
F0
aF0
aF0
asS'gmax'
p1274
(lp1275
F0.001
aF0.001
aF0.001
assS'CaHVA'
p1276
(dp1277
S'iCaH'
p1278
(lp1279
F0
aF0
aF0
asS'm'
(lp1280
F0
aF0
aF0
asS'gmax'
p1281
(lp1282
F4.4999999999999996e-05
aF4.4999999999999996e-05
aF4.4999999999999996e-05
assS'NaF'
p1283
(dp1284
S'h'
(lp1285
F0
aF0
aF0
asS's'
(lp1286
F0
aF0
aF0
asS'm'
(lp1287
F0
aF0
aF0
asS'iNa'
p1288
(lp1289
F0
aF0
aF0
asS'gmax'
p1290
(lp1291
F0.035000000000000003
aF0.035000000000000003
aF0.035000000000000003
assS'HCN'
p1292
(dp1293
S'ih'
p1294
(lp1295
F0
aF0
aF0
asS'iHCN'
p1296
(lp1297
F0
aF0
aF0
asS'm'
(lp1298
F0
aF0
aF0
asS'gmax'
p1299
(lp1300
F0.0001
aF0.0001
aF0.0001
asssg205
g206
((ltRp1301
sg208
(dp1302
sg210
F174
sg211
(dp1303
g213
(lp1304
F1
aF1
aF1
asg215
F0
sg216
I2
sg217
(lp1305
(F-147.89999389648438
F-49.189998626708984
F13.720000267028809
F1
tp1306
a(F-147.96321105957031
F-49.213748931884766
F13.767759323120117
F1
tp1307
a(F-148.01087951660156
F-49.263504028320312
F13.807572364807129
F1
tp1308
a(F-148.05778503417969
F-49.316692352294922
F13.827570915222168
F1
tp1309
a(F-148.13406372070312
F-49.337318420410156
F13.848214149475098
F1
tp1310
a(F-148.18119812011719
F-49.384757995605469
F13.836624145507812
F1
tp1311
a(F-148.25904846191406
F-49.386955261230469
F13.852795600891113
F1
tp1312
a(F-148.30401611328125
F-49.445533752441406
F13.857729911804199
F1
tp1313
a(F-148.33453369140625
F-49.497047424316406
F13.87586784362793
F1
tp1314
a(F-148.3369140625
F-49.565296173095703
F13.864355087280273
F1
tp1315
a(F-148.34768676757812
F-49.623970031738281
F13.882415771484375
F1
tp1316
a(F-148.38096618652344
F-49.652206420898438
F13.838945388793945
F1
tp1317
a(F-148.42237854003906
F-49.707836151123047
F13.842050552368164
F1
tp1318
a(F-148.40408325195312
F-49.764217376708984
F13.868136405944824
F1
tp1319
a(F-148.4112548828125
F-49.834529876708984
F13.861265182495117
F1
tp1320
asS'L'
F1
sg222
F1
ssg223
S'__nrnsec_0x56510796bd60'
p1321
sg225
g206
((ltRp1322
sa(dp1323
g58
(dp1324
S'na'
p1325
(dp1326
S'ena'
p1327
(lp1328
F50
asS'dina_dv_'
p1329
(lp1330
F0
asS'nai'
p1331
(lp1332
F10
asS'nao'
p1333
(lp1334
F140
asS'ina'
p1335
(lp1336
F0
asg72
F8
ssS'k'
(dp1337
S'ek'
p1338
(lp1339
F-90
asS'ki'
p1340
(lp1341
F54.399999999999999
asS'ko'
p1342
(lp1343
F2.5
asS'ik'
p1344
(lp1345
F0
asS'dik_dv_'
p1346
(lp1347
F0
asg72
F8
ssS'ca'
p1348
(dp1349
S'eca'
p1350
(lp1351
F132.45793416370091
asS'dica_dv_'
p1352
(lp1353
F0
asS'ica'
p1354
(lp1355
F0
asS'cai'
p1356
(lp1357
F5.0000000000000002e-05
asS'cao'
p1358
(lp1359
F2
asg72
F247
sssg96
S'GPe[0].dend[12]'
p1360
sg98
(lp1361
F2.3999999999999999
asg100
I1
sg101
(dp1362
S'pas'
p1363
(dp1364
S'i'
(lp1365
F0
asS'e'
(lp1366
F-60
asS'g'
(lp1367
F6.802721088435374e-05
assS'Kv4s'
p1368
(dp1369
S'm'
(lp1370
F0
asS'h'
(lp1371
F0
asS'iKv4s'
p1372
(lp1373
F0
asS'gmax'
p1374
(lp1375
F0.0060000000000000001
assS'Kv4f'
p1376
(dp1377
S'iKv4f'
p1378
(lp1379
F0
asS'h'
(lp1380
F0
asS'm'
(lp1381
F0
asS'gmax'
p1382
(lp1383
F0.0040000000000000001
assS'HCN2'
p1384
(dp1385
S'ih'
p1386
(lp1387
F0
asS'iHCN'
p1388
(lp1389
F0
asS'm'
(lp1390
F0
asS'gmax'
p1391
(lp1392
F0.00025000000000000001
assS'KCNQ'
p1393
(dp1394
S'iKCNQ'
p1395
(lp1396
F0
asS'm'
(lp1397
F0
asS'gmax'
p1398
(lp1399
F0.00020000000000000001
assS'SK'
p1400
(dp1401
S'iSK'
p1402
(lp1403
F0
asS'm'
(lp1404
F0
asS'gmax'
p1405
(lp1406
F4.0000000000000003e-05
assS'Calcium'
p1407
(dp1408
S'tau'
p1409
(lp1410
F1
asS'depth'
p1411
(lp1412
F1600000000000
asS'cai0'
p1413
(lp1414
F5.0000000000000002e-05
assS'NaP'
p1415
(dp1416
S'h'
(lp1417
F0
asS's'
(lp1418
F0
asS'm'
(lp1419
F0
asS'iNa'
p1420
(lp1421
F0
asS'gmax'
p1422
(lp1423
F0.0001015
assS'Kv2'
p1424
(dp1425
S'm'
(lp1426
F0
asS'h'
(lp1427
F0
asS'iKv2'
p1428
(lp1429
F0
asS'gmax'
p1430
(lp1431
F0.0001
assS'Kv3'
p1432
(dp1433
S'h'
(lp1434
F0
asS'm'
(lp1435
F0
asS'iKv3'
p1436
(lp1437
F0
asS'gmax'
p1438
(lp1439
F0.001
assS'CaHVA'
p1440
(dp1441
S'iCaH'
p1442
(lp1443
F0
asS'm'
(lp1444
F0
asS'gmax'
p1445
(lp1446
F3.0000000000000001e-05
assS'NaF'
p1447
(dp1448
S'h'
(lp1449
F0
asS's'
(lp1450
F0
asS'm'
(lp1451
F0
asS'iNa'
p1452
(lp1453
F0
asS'gmax'
p1454
(lp1455
F0.035000000000000003
assS'HCN'
p1456
(dp1457
S'ih'
p1458
(lp1459
F0
asS'iHCN'
p1460
(lp1461
F0
asS'm'
(lp1462
F0
asS'gmax'
p1463
(lp1464
F0.0001
asssg205
g206
((ltRp1465
sg208
(dp1466
sg210
F174
sg211
(dp1467
g213
(lp1468
F1
asg215
F0
sg216
I2
sg217
(lp1469
(F-147.89999389648438
F-49.189998626708984
F13.720000267028809
F1
tp1470
a(F-148.165771484375
F-49.224639892578125
F13.751310348510742
F1
tp1471
a(F-148.39936828613281
F-49.244613647460938
F13.791736602783203
F1
tp1472
a(F-148.58799743652344
F-49.285873413085938
F13.927322387695312
F1
tp1473
a(F-148.83097839355469
F-49.299385070800781
F14.007739067077637
F1
tp1474
asS'L'
F0.99999999999999989
sg222
F1
ssg223
S'__nrnsec_0x56510796bb80'
p1475
sg225
g206
((ltRp1476
sa(dp1477
g58
(dp1478
S'na'
p1479
(dp1480
S'ena'
p1481
(lp1482
F50
aF50
aF50
aF50
aF50
aF50
aF50
aF50
aF50
asS'dina_dv_'
p1483
(lp1484
F0
aF0
aF0
aF0
aF0
aF0
aF0
aF0
aF0
asS'nai'
p1485
(lp1486
F10
aF10
aF10
aF10
aF10
aF10
aF10
aF10
aF10
asS'nao'
p1487
(lp1488
F140
aF140
aF140
aF140
aF140
aF140
aF140
aF140
aF140
asS'ina'
p1489
(lp1490
F0
aF0
aF0
aF0
aF0
aF0
aF0
aF0
aF0
asg72
F8
ssS'k'
(dp1491
S'ek'
p1492
(lp1493
F-90
aF-90
aF-90
aF-90
aF-90
aF-90
aF-90
aF-90
aF-90
asS'ki'
p1494
(lp1495
F54.399999999999999
aF54.399999999999999
aF54.399999999999999
aF54.399999999999999
aF54.399999999999999
aF54.399999999999999
aF54.399999999999999
aF54.399999999999999
aF54.399999999999999
asS'ko'
p1496
(lp1497
F2.5
aF2.5
aF2.5
aF2.5
aF2.5
aF2.5
aF2.5
aF2.5
aF2.5
asS'ik'
p1498
(lp1499
F0
aF0
aF0
aF0
aF0
aF0
aF0
aF0
aF0
asS'dik_dv_'
p1500
(lp1501
F0
aF0
aF0
aF0
aF0
aF0
aF0
aF0
aF0
asg72
F8
ssS'ca'
p1502
(dp1503
S'eca'
p1504
(lp1505
F132.45793416370091
aF132.45793416370091
aF132.45793416370091
aF132.45793416370091
aF132.45793416370091
aF132.45793416370091
aF132.45793416370091
aF132.45793416370091
aF132.45793416370091
asS'dica_dv_'
p1506
(lp1507
F0
aF0
aF0
aF0
aF0
aF0
aF0
aF0
aF0
asS'ica'
p1508
(lp1509
F0
aF0
aF0
aF0
aF0
aF0
aF0
aF0
aF0
asS'cai'
p1510
(lp1511
F5.0000000000000002e-05
aF5.0000000000000002e-05
aF5.0000000000000002e-05
aF5.0000000000000002e-05
aF5.0000000000000002e-05
aF5.0000000000000002e-05
aF5.0000000000000002e-05
aF5.0000000000000002e-05
aF5.0000000000000002e-05
asS'cao'
p1512
(lp1513
F2
aF2
aF2
aF2
aF2
aF2
aF2
aF2
aF2
asg72
F247
sssg96
S'GPe[0].dend[10]'
p1514
sg98
(lp1515
F2.3999999999999999
aF2.3999999999999999
aF2.3999999999999999
aF2.3999999999999999
aF2.3999999999999999
aF2.3999999999999999
aF2.3999999999999999
aF2.3999999999999999
aF2.3999999999999999
asg100
I9
sg101
(dp1516
S'pas'
p1517
(dp1518
S'i'
(lp1519
F0
aF0
aF0
aF0
aF0
aF0
aF0
aF0
aF0
asS'e'
(lp1520
F-60
aF-60
aF-60
aF-60
aF-60
aF-60
aF-60
aF-60
aF-60
asS'g'
(lp1521
F6.802721088435374e-05
aF6.802721088435374e-05
aF6.802721088435374e-05
aF6.802721088435374e-05
aF6.802721088435374e-05
aF6.802721088435374e-05
aF6.802721088435374e-05
aF6.802721088435374e-05
aF6.802721088435374e-05
assS'Kv4s'
p1522
(dp1523
S'm'
(lp1524
F0
aF0
aF0
aF0
aF0
aF0
aF0
aF0
aF0
asS'h'
(lp1525
F0
aF0
aF0
aF0
aF0
aF0
aF0
aF0
aF0
asS'iKv4s'
p1526
(lp1527
F0
aF0
aF0
aF0
aF0
aF0
aF0
aF0
aF0
asS'gmax'
p1528
(lp1529
F0.0060000000000000001
aF0.0060000000000000001
aF0.0060000000000000001
aF0.0060000000000000001
aF0.0060000000000000001
aF0.0060000000000000001
aF0.0060000000000000001
aF0.0060000000000000001
aF0.0060000000000000001
assS'Kv4f'
p1530
(dp1531
S'iKv4f'
p1532
(lp1533
F0
aF0
aF0
aF0
aF0
aF0
aF0
aF0
aF0
asS'h'
(lp1534
F0
aF0
aF0
aF0
aF0
aF0
aF0
aF0
aF0
asS'm'
(lp1535
F0
aF0
aF0
aF0
aF0
aF0
aF0
aF0
aF0
asS'gmax'
p1536
(lp1537
F0.0040000000000000001
aF0.0040000000000000001
aF0.0040000000000000001
aF0.0040000000000000001
aF0.0040000000000000001
aF0.0040000000000000001
aF0.0040000000000000001
aF0.0040000000000000001
aF0.0040000000000000001
assS'HCN2'
p1538
(dp1539
S'ih'
p1540
(lp1541
F0
aF0
aF0
aF0
aF0
aF0
aF0
aF0
aF0
asS'iHCN'
p1542
(lp1543
F0
aF0
aF0
aF0
aF0
aF0
aF0
aF0
aF0
asS'm'
(lp1544
F0
aF0
aF0
aF0
aF0
aF0
aF0
aF0
aF0
asS'gmax'
p1545
(lp1546
F0.00025000000000000001
aF0.00025000000000000001
aF0.00025000000000000001
aF0.00025000000000000001
aF0.00025000000000000001
aF0.00025000000000000001
aF0.00025000000000000001
aF0.00025000000000000001
aF0.00025000000000000001
assS'KCNQ'
p1547
(dp1548
S'iKCNQ'
p1549
(lp1550
F0
aF0
aF0
aF0
aF0
aF0
aF0
aF0
aF0
asS'm'
(lp1551
F0
aF0
aF0
aF0
aF0
aF0
aF0
aF0
aF0
asS'gmax'
p1552
(lp1553
F0.00020000000000000001
aF0.00020000000000000001
aF0.00020000000000000001
aF0.00020000000000000001
aF0.00020000000000000001
aF0.00020000000000000001
aF0.00020000000000000001
aF0.00020000000000000001
aF0.00020000000000000001
assS'SK'
p1554
(dp1555
S'iSK'
p1556
(lp1557
F0
aF0
aF0
aF0
aF0
aF0
aF0
aF0
aF0
asS'm'
(lp1558
F0
aF0
aF0
aF0
aF0
aF0
aF0
aF0
aF0
asS'gmax'
p1559
(lp1560
F4.0000000000000003e-05
aF4.0000000000000003e-05
aF4.0000000000000003e-05
aF4.0000000000000003e-05
aF4.0000000000000003e-05
aF4.0000000000000003e-05
aF4.0000000000000003e-05
aF4.0000000000000003e-05
aF4.0000000000000003e-05
assS'Calcium'
p1561
(dp1562
S'tau'
p1563
(lp1564
F1
aF1
aF1
aF1
aF1
aF1
aF1
aF1
aF1
asS'depth'
p1565
(lp1566
F1600000000000
aF1600000000000
aF1600000000000
aF1600000000000
aF1600000000000
aF1600000000000
aF1600000000000
aF1600000000000
aF1600000000000
asS'cai0'
p1567
(lp1568
F5.0000000000000002e-05
aF5.0000000000000002e-05
aF5.0000000000000002e-05
aF5.0000000000000002e-05
aF5.0000000000000002e-05
aF5.0000000000000002e-05
aF5.0000000000000002e-05
aF5.0000000000000002e-05
aF5.0000000000000002e-05
assS'NaP'
p1569
(dp1570
S'h'
(lp1571
F0
aF0
aF0
aF0
aF0
aF0
aF0
aF0
aF0
asS's'
(lp1572
F0
aF0
aF0
aF0
aF0
aF0
aF0
aF0
aF0
asS'm'
(lp1573
F0
aF0
aF0
aF0
aF0
aF0
aF0
aF0
aF0
asS'iNa'
p1574
(lp1575
F0
aF0
aF0
aF0
aF0
aF0
aF0
aF0
aF0
asS'gmax'
p1576
(lp1577
F0.0001015
aF0.0001015
aF0.0001015
aF0.0001015
aF0.0001015
aF0.0001015
aF0.0001015
aF0.0001015
aF0.0001015
assS'Kv2'
p1578
(dp1579
S'm'
(lp1580
F0
aF0
aF0
aF0
aF0
aF0
aF0
aF0
aF0
asS'h'
(lp1581
F0
aF0
aF0
aF0
aF0
aF0
aF0
aF0
aF0
asS'iKv2'
p1582
(lp1583
F0
aF0
aF0
aF0
aF0
aF0
aF0
aF0
aF0
asS'gmax'
p1584
(lp1585
F0.0001
aF0.0001
aF0.0001
aF0.0001
aF0.0001
aF0.0001
aF0.0001
aF0.0001
aF0.0001
assS'Kv3'
p1586
(dp1587
S'h'
(lp1588
F0
aF0
aF0
aF0
aF0
aF0
aF0
aF0
aF0
asS'm'
(lp1589
F0
aF0
aF0
aF0
aF0
aF0
aF0
aF0
aF0
asS'iKv3'
p1590
(lp1591
F0
aF0
aF0
aF0
aF0
aF0
aF0
aF0
aF0
asS'gmax'
p1592
(lp1593
F0.001
aF0.001
aF0.001
aF0.001
aF0.001
aF0.001
aF0.001
aF0.001
aF0.001
assS'CaHVA'
p1594
(dp1595
S'iCaH'
p1596
(lp1597
F0
aF0
aF0
aF0
aF0
aF0
aF0
aF0
aF0
asS'm'
(lp1598
F0
aF0
aF0
aF0
aF0
aF0
aF0
aF0
aF0
asS'gmax'
p1599
(lp1600
F4.4999999999999996e-05
aF4.4999999999999996e-05
aF4.4999999999999996e-05
aF4.4999999999999996e-05
aF4.4999999999999996e-05
aF4.4999999999999996e-05
aF8.9999999999999992e-05
aF8.9999999999999992e-05
aF8.9999999999999992e-05
assS'NaF'
p1601
(dp1602
S'h'
(lp1603
F0
aF0
aF0
aF0
aF0
aF0
aF0
aF0
aF0
asS's'
(lp1604
F0
aF0
aF0
aF0
aF0
aF0
aF0
aF0
aF0
asS'm'
(lp1605
F0
aF0
aF0
aF0
aF0
aF0
aF0
aF0
aF0
asS'iNa'
p1606
(lp1607
F0
aF0
aF0
aF0
aF0
aF0
aF0
aF0
aF0
asS'gmax'
p1608
(lp1609
F0.035000000000000003
aF0.035000000000000003
aF0.035000000000000003
aF0.035000000000000003
aF0.035000000000000003
aF0.035000000000000003
aF0.035000000000000003
aF0.035000000000000003
aF0.035000000000000003
assS'HCN'
p1610
(dp1611
S'ih'
p1612
(lp1613
F0
aF0
aF0
aF0
aF0
aF0
aF0
aF0
aF0
asS'iHCN'
p1614
(lp1615
F0
aF0
aF0
aF0
aF0
aF0
aF0
aF0
aF0
asS'm'
(lp1616
F0
aF0
aF0
aF0
aF0
aF0
aF0
aF0
aF0
asS'gmax'
p1617
(lp1618
F0.0001
aF0.0001
aF0.0001
aF0.0001
aF0.0001
aF0.0001
aF0.0001
aF0.0001
aF0.0001
asssg205
g206
((ltRp1619
sg208
(dp1620
sg210
F174
sg211
(dp1621
g213
(lp1622
F1
aF1
aF1
aF1
aF1
aF1
aF1
aF1
aF1
asg215
F0
sg216
I3
sg217
(lp1623
(F-5.5799999237060547
F13.819999694824219
F0.10999999940395355
F1
tp1624
a(F-5.5737104415893555
F13.847598075866699
F0.13150373101234436
F1
tp1625
a(F-5.5678873062133789
F13.879332542419434
F0.12607085704803467
F1
tp1626
a(F-5.5674314498901367
F13.908893585205078
F0.13589014112949371
F1
tp1627
a(F-5.5419754981994629
F13.93360710144043
F0.13360747694969177
F1
tp1628
a(F-5.5312290191650391
F13.963986396789551
F0.13092899322509766
F1
tp1629
a(F-5.5231499671936035
F13.995559692382812
F0.13092899322509766
F1
tp1630
a(F-5.5179123878479004
F14.030976295471191
F0.13092899322509766
F1
tp1631
a(F-5.5159769058227539
F14.064739227294922
F0.1305440366268158
F1
tp1632
a(F-5.515803337097168
F14.099770545959473
F0.1303325742483139
F1
tp1633
a(F-5.501554012298584
F14.13054084777832
F0.1251111626625061
F1
tp1634
a(F-5.4846916198730469
F14.159255027770996
F0.12415146827697754
F1
tp1635
a(F-5.4782719612121582
F14.190713882446289
F0.13092899322509766
F1
tp1636
a(F-5.4641909599304199
F14.222665786743164
F0.13092899322509766
F1
tp1637
a(F-5.4428935050964355
F14.25184154510498
F0.13092899322509766
F1
tp1638
a(F-5.423607349395752
F14.28110408782959
F0.13298936188220978
F1
tp1639
a(F-5.4029331207275391
F14.306919097900391
F0.13955000042915344
F1
tp1640
a(F-5.3901371955871582
F14.337308883666992
F0.14141517877578735
F1
tp1641
a(F-5.3806538581848145
F14.366191864013672
F0.15487805008888245
F1
tp1642
a(F-5.3633308410644531
F14.391567230224609
F0.16375389695167542
F1
tp1643
a(F-5.3534789085388184
F14.411818504333496
F0.15180377662181854
F1
tp1644
a(F-5.3414254188537598
F14.43048095703125
F0.15180377662181854
F1
tp1645
a(F-5.3277621269226074
F14.447788238525391
F0.15180377662181854
F1
tp1646
a(F-5.3124613761901855
F14.463886260986328
F0.15180377662181854
F1
tp1647
a(F-5.2987542152404785
F14.481247901916504
F0.15095792710781097
F1
tp1648
a(F-5.2872161865234375
F14.4998779296875
F0.14721131324768066
F1
tp1649
a(F-5.2761878967285156
F14.518366813659668
F0.141745924949646
F1
tp1650
a(F-5.2653274536132812
F14.536801338195801
F0.13571663200855255
F1
tp1651
a(F-5.258056640625
F14.556771278381348
F0.13041390478610992
F1
tp1652
a(F-5.2502651214599609
F14.576762199401855
F0.12539853155612946
F1
tp1653
a(F-5.2379574775695801
F14.595277786254883
F0.12539853155612946
F1
tp1654
a(F-5.228538990020752
F14.615198135375977
F0.12452016770839691
F1
tp1655
a(F-5.2212953567504883
F14.635828971862793
F0.12050787359476089
F1
tp1656
a(F-5.2129507064819336
F14.655999183654785
F0.11737394332885742
F1
tp1657
a(F-5.2006430625915527
F14.674515724182129
F0.11737394332885742
F1
tp1658
a(F-5.1935725212097168
F14.690016746520996
F0.10446953773498535
F1
tp1659
asS'L'
F1
sg222
F1
ssg223
S'__nrnsec_0x56510796bac0'
p1660
sg225
g206
((ltRp1661
sa(dp1662
g58
(dp1663
S'na'
p1664
(dp1665
S'ena'
p1666
(lp1667
F50
aF50
aF50
aF50
aF50
asS'dina_dv_'
p1668
(lp1669
F0
aF0
aF0
aF0
aF0
asS'nai'
p1670
(lp1671
F10
aF10
aF10
aF10
aF10
asS'nao'
p1672
(lp1673
F140
aF140
aF140
aF140
aF140
asS'ina'
p1674
(lp1675
F0
aF0
aF0
aF0
aF0
asg72
F8
ssS'k'
(dp1676
S'ek'
p1677
(lp1678
F-90
aF-90
aF-90
aF-90
aF-90
asS'ki'
p1679
(lp1680
F54.399999999999999
aF54.399999999999999
aF54.399999999999999
aF54.399999999999999
aF54.399999999999999
asS'ko'
p1681
(lp1682
F2.5
aF2.5
aF2.5
aF2.5
aF2.5
asS'ik'
p1683
(lp1684
F0
aF0
aF0
aF0
aF0
asS'dik_dv_'
p1685
(lp1686
F0
aF0
aF0
aF0
aF0
asg72
F8
ssS'ca'
p1687
(dp1688
S'eca'
p1689
(lp1690
F132.45793416370091
aF132.45793416370091
aF132.45793416370091
aF132.45793416370091
aF132.45793416370091
asS'dica_dv_'
p1691
(lp1692
F0
aF0
aF0
aF0
aF0
asS'ica'
p1693
(lp1694
F0
aF0
aF0
aF0
aF0
asS'cai'
p1695
(lp1696
F5.0000000000000002e-05
aF5.0000000000000002e-05
aF5.0000000000000002e-05
aF5.0000000000000002e-05
aF5.0000000000000002e-05
asS'cao'
p1697
(lp1698
F2
aF2
aF2
aF2
aF2
asg72
F247
sssg96
S'GPe[0].dend[1]'
p1699
sg98
(lp1700
F2.3999999999999999
aF2.3999999999999999
aF2.3999999999999999
aF2.3999999999999999
aF2.3999999999999999
asg100
I5
sg101
(dp1701
S'pas'
p1702
(dp1703
S'i'
(lp1704
F0
aF0
aF0
aF0
aF0
asS'e'
(lp1705
F-60
aF-60
aF-60
aF-60
aF-60
asS'g'
(lp1706
F6.802721088435374e-05
aF6.802721088435374e-05
aF6.802721088435374e-05
aF6.802721088435374e-05
aF6.802721088435374e-05
assS'Kv4s'
p1707
(dp1708
S'm'
(lp1709
F0
aF0
aF0
aF0
aF0
asS'h'
(lp1710
F0
aF0
aF0
aF0
aF0
asS'iKv4s'
p1711
(lp1712
F0
aF0
aF0
aF0
aF0
asS'gmax'
p1713
(lp1714
F0.0060000000000000001
aF0.0060000000000000001
aF0.0060000000000000001
aF0.0060000000000000001
aF0.0060000000000000001
assS'Kv4f'
p1715
(dp1716
S'iKv4f'
p1717
(lp1718
F0
aF0
aF0
aF0
aF0
asS'h'
(lp1719
F0
aF0
aF0
aF0
aF0
asS'm'
(lp1720
F0
aF0
aF0
aF0
aF0
asS'gmax'
p1721
(lp1722
F0.0040000000000000001
aF0.0040000000000000001
aF0.0040000000000000001
aF0.0040000000000000001
aF0.0040000000000000001
assS'HCN2'
p1723
(dp1724
S'ih'
p1725
(lp1726
F0
aF0
aF0
aF0
aF0
asS'iHCN'
p1727
(lp1728
F0
aF0
aF0
aF0
aF0
asS'm'
(lp1729
F0
aF0
aF0
aF0
aF0
asS'gmax'
p1730
(lp1731
F0.00025000000000000001
aF0.00025000000000000001
aF0.00025000000000000001
aF0.00025000000000000001
aF0.00025000000000000001
assS'KCNQ'
p1732
(dp1733
S'iKCNQ'
p1734
(lp1735
F0
aF0
aF0
aF0
aF0
asS'm'
(lp1736
F0
aF0
aF0
aF0
aF0
asS'gmax'
p1737
(lp1738
F0.00020000000000000001
aF0.00020000000000000001
aF0.00020000000000000001
aF0.00020000000000000001
aF0.00020000000000000001
assS'SK'
p1739
(dp1740
S'iSK'
p1741
(lp1742
F0
aF0
aF0
aF0
aF0
asS'm'
(lp1743
F0
aF0
aF0
aF0
aF0
asS'gmax'
p1744
(lp1745
F4.0000000000000003e-05
aF4.0000000000000003e-05
aF4.0000000000000003e-05
aF4.0000000000000003e-05
aF4.0000000000000003e-05
assS'Calcium'
p1746
(dp1747
S'tau'
p1748
(lp1749
F1
aF1
aF1
aF1
aF1
asS'depth'
p1750
(lp1751
F1600000000000
aF1600000000000
aF1600000000000
aF1600000000000
aF1600000000000
asS'cai0'
p1752
(lp1753
F5.0000000000000002e-05
aF5.0000000000000002e-05
aF5.0000000000000002e-05
aF5.0000000000000002e-05
aF5.0000000000000002e-05
assS'NaP'
p1754
(dp1755
S'h'
(lp1756
F0
aF0
aF0
aF0
aF0
asS's'
(lp1757
F0
aF0
aF0
aF0
aF0
asS'm'
(lp1758
F0
aF0
aF0
aF0
aF0
asS'iNa'
p1759
(lp1760
F0
aF0
aF0
aF0
aF0
asS'gmax'
p1761
(lp1762
F0.0001015
aF0.0001015
aF0.0001015
aF0.0001015
aF0.0001015
assS'Kv2'
p1763
(dp1764
S'm'
(lp1765
F0
aF0
aF0
aF0
aF0
asS'h'
(lp1766
F0
aF0
aF0
aF0
aF0
asS'iKv2'
p1767
(lp1768
F0
aF0
aF0
aF0
aF0
asS'gmax'
p1769
(lp1770
F0.0001
aF0.0001
aF0.0001
aF0.0001
aF0.0001
assS'Kv3'
p1771
(dp1772
S'h'
(lp1773
F0
aF0
aF0
aF0
aF0
asS'm'
(lp1774
F0
aF0
aF0
aF0
aF0
asS'iKv3'
p1775
(lp1776
F0
aF0
aF0
aF0
aF0
asS'gmax'
p1777
(lp1778
F0.001
aF0.001
aF0.001
aF0.001
aF0.001
assS'CaHVA'
p1779
(dp1780
S'iCaH'
p1781
(lp1782
F0
aF0
aF0
aF0
aF0
asS'm'
(lp1783
F0
aF0
aF0
aF0
aF0
asS'gmax'
p1784
(lp1785
F3.0000000000000001e-05
aF3.0000000000000001e-05
aF3.0000000000000001e-05
aF3.0000000000000001e-05
aF3.0000000000000001e-05
assS'NaF'
p1786
(dp1787
S'h'
(lp1788
F0
aF0
aF0
aF0
aF0
asS's'
(lp1789
F0
aF0
aF0
aF0
aF0
asS'm'
(lp1790
F0
aF0
aF0
aF0
aF0
asS'iNa'
p1791
(lp1792
F0
aF0
aF0
aF0
aF0
asS'gmax'
p1793
(lp1794
F0.035000000000000003
aF0.035000000000000003
aF0.035000000000000003
aF0.035000000000000003
aF0.035000000000000003
assS'HCN'
p1795
(dp1796
S'ih'
p1797
(lp1798
F0
aF0
aF0
aF0
aF0
asS'iHCN'
p1799
(lp1800
F0
aF0
aF0
aF0
aF0
asS'm'
(lp1801
F0
aF0
aF0
aF0
aF0
asS'gmax'
p1802
(lp1803
F0.0001
aF0.0001
aF0.0001
aF0.0001
aF0.0001
asssg205
g206
((ltRp1804
sg208
(dp1805
sg210
F174
sg211
(dp1806
g213
(lp1807
F1
aF1
aF1
aF1
aF1
asg215
F0
sg216
I3
sg217
(lp1808
(F-5.5799999237060547
F13.819999694824219
F0.10999999940395355
F1
tp1809
a(F-5.6368894577026367
F13.854110717773438
F0.13724277913570404
F1
tp1810
a(F-5.7091398239135742
F13.876030921936035
F0.1410888284444809
F1
tp1811
a(F-5.7853736877441406
F13.90125846862793
F0.14250819385051727
F1
tp1812
a(F-5.8572239875793457
F13.909660339355469
F0.14250819385051727
F1
tp1813
a(F-5.9184055328369141
F13.941939353942871
F0.15572896599769592
F1
tp1814
a(F-5.9785456657409668
F13.981212615966797
F0.16828583180904388
F1
tp1815
a(F-6.0359959602355957
F14.009074211120605
F0.18268558382987976
F1
tp1816
a(F-6.1067700386047363
F14.022397994995117
F0.19310194253921509
F1
tp1817
a(F-6.1361303329467773
F14.08758544921875
F0.19046923518180847
F1
tp1818
a(F-6.1987085342407227
F14.099123954772949
F0.22888386249542236
F1
tp1819
a(F-6.2017993927001953
F14.146879196166992
F0.26618814468383789
F1
tp1820
a(F-6.2714858055114746
F14.178471565246582
F0.27145355939865112
F1
tp1821
a(F-6.2655339241027832
F14.227508544921875
F0.29963496327400208
F1
tp1822
a(F-6.3280320167541504
F14.214219093322754
F0.34499764442443848
F1
tp1823
asS'L'
F1
sg222
F1
ssg223
S'__nrnsec_0x56510796b760'
p1824
sg225
g206
((ltRp1825
sa(dp1826
g58
(dp1827
S'na'
p1828
(dp1829
S'ena'
p1830
(lp1831
F50
aF50
aF50
aF50
aF50
asS'dina_dv_'
p1832
(lp1833
F0
aF0
aF0
aF0
aF0
asS'nai'
p1834
(lp1835
F10
aF10
aF10
aF10
aF10
asS'nao'
p1836
(lp1837
F140
aF140
aF140
aF140
aF140
asS'ina'
p1838
(lp1839
F0
aF0
aF0
aF0
aF0
asg72
F8
ssS'k'
(dp1840
S'ek'
p1841
(lp1842
F-90
aF-90
aF-90
aF-90
aF-90
asS'ki'
p1843
(lp1844
F54.399999999999999
aF54.399999999999999
aF54.399999999999999
aF54.399999999999999
aF54.399999999999999
asS'ko'
p1845
(lp1846
F2.5
aF2.5
aF2.5
aF2.5
aF2.5
asS'ik'
p1847
(lp1848
F0
aF0
aF0
aF0
aF0
asS'dik_dv_'
p1849
(lp1850
F0
aF0
aF0
aF0
aF0
asg72
F8
ssS'ca'
p1851
(dp1852
S'eca'
p1853
(lp1854
F132.45793416370091
aF132.45793416370091
aF132.45793416370091
aF132.45793416370091
aF132.45793416370091
asS'dica_dv_'
p1855
(lp1856
F0
aF0
aF0
aF0
aF0
asS'ica'
p1857
(lp1858
F0
aF0
aF0
aF0
aF0
asS'cai'
p1859
(lp1860
F5.0000000000000002e-05
aF5.0000000000000002e-05
aF5.0000000000000002e-05
aF5.0000000000000002e-05
aF5.0000000000000002e-05
asS'cao'
p1861
(lp1862
F2
aF2
aF2
aF2
aF2
asg72
F247
sssg96
S'GPe[0].dend[38]'
p1863
sg98
(lp1864
F2.3999999999999999
aF2.3999999999999999
aF2.3999999999999999
aF2.3999999999999999
aF2.3999999999999999
asg100
I5
sg101
(dp1865
S'pas'
p1866
(dp1867
S'i'
(lp1868
F0
aF0
aF0
aF0
aF0
asS'e'
(lp1869
F-60
aF-60
aF-60
aF-60
aF-60
asS'g'
(lp1870
F6.802721088435374e-05
aF6.802721088435374e-05
aF6.802721088435374e-05
aF6.802721088435374e-05
aF6.802721088435374e-05
assS'Kv4s'
p1871
(dp1872
S'm'
(lp1873
F0
aF0
aF0
aF0
aF0
asS'h'
(lp1874
F0
aF0
aF0
aF0
aF0
asS'iKv4s'
p1875
(lp1876
F0
aF0
aF0
aF0
aF0
asS'gmax'
p1877
(lp1878
F0.0060000000000000001
aF0.0060000000000000001
aF0.0060000000000000001
aF0.0060000000000000001
aF0.0060000000000000001
assS'Kv4f'
p1879
(dp1880
S'iKv4f'
p1881
(lp1882
F0
aF0
aF0
aF0
aF0
asS'h'
(lp1883
F0
aF0
aF0
aF0
aF0
asS'm'
(lp1884
F0
aF0
aF0
aF0
aF0
asS'gmax'
p1885
(lp1886
F0.0040000000000000001
aF0.0040000000000000001
aF0.0040000000000000001
aF0.0040000000000000001
aF0.0040000000000000001
assS'HCN2'
p1887
(dp1888
S'ih'
p1889
(lp1890
F0
aF0
aF0
aF0
aF0
asS'iHCN'
p1891
(lp1892
F0
aF0
aF0
aF0
aF0
asS'm'
(lp1893
F0
aF0
aF0
aF0
aF0
asS'gmax'
p1894
(lp1895
F0.00025000000000000001
aF0.00025000000000000001
aF0.00025000000000000001
aF0.00025000000000000001
aF0.00025000000000000001
assS'KCNQ'
p1896
(dp1897
S'iKCNQ'
p1898
(lp1899
F0
aF0
aF0
aF0
aF0
asS'm'
(lp1900
F0
aF0
aF0
aF0
aF0
asS'gmax'
p1901
(lp1902
F0.00020000000000000001
aF0.00020000000000000001
aF0.00020000000000000001
aF0.00020000000000000001
aF0.00020000000000000001
assS'SK'
p1903
(dp1904
S'iSK'
p1905
(lp1906
F0
aF0
aF0
aF0
aF0
asS'm'
(lp1907
F0
aF0
aF0
aF0
aF0
asS'gmax'
p1908
(lp1909
F4.0000000000000003e-05
aF4.0000000000000003e-05
aF4.0000000000000003e-05
aF4.0000000000000003e-05
aF4.0000000000000003e-05
assS'Calcium'
p1910
(dp1911
S'tau'
p1912
(lp1913
F1
aF1
aF1
aF1
aF1
asS'depth'
p1914
(lp1915
F1600000000000
aF1600000000000
aF1600000000000
aF1600000000000
aF1600000000000
asS'cai0'
p1916
(lp1917
F5.0000000000000002e-05
aF5.0000000000000002e-05
aF5.0000000000000002e-05
aF5.0000000000000002e-05
aF5.0000000000000002e-05
assS'NaP'
p1918
(dp1919
S'h'
(lp1920
F0
aF0
aF0
aF0
aF0
asS's'
(lp1921
F0
aF0
aF0
aF0
aF0
asS'm'
(lp1922
F0
aF0
aF0
aF0
aF0
asS'iNa'
p1923
(lp1924
F0
aF0
aF0
aF0
aF0
asS'gmax'
p1925
(lp1926
F0.0001015
aF0.0001015
aF0.0001015
aF0.0001015
aF0.0001015
assS'Kv2'
p1927
(dp1928
S'm'
(lp1929
F0
aF0
aF0
aF0
aF0
asS'h'
(lp1930
F0
aF0
aF0
aF0
aF0
asS'iKv2'
p1931
(lp1932
F0
aF0
aF0
aF0
aF0
asS'gmax'
p1933
(lp1934
F0.0001
aF0.0001
aF0.0001
aF0.0001
aF0.0001
assS'Kv3'
p1935
(dp1936
S'h'
(lp1937
F0
aF0
aF0
aF0
aF0
asS'm'
(lp1938
F0
aF0
aF0
aF0
aF0
asS'iKv3'
p1939
(lp1940
F0
aF0
aF0
aF0
aF0
asS'gmax'
p1941
(lp1942
F0.001
aF0.001
aF0.001
aF0.001
aF0.001
assS'CaHVA'
p1943
(dp1944
S'iCaH'
p1945
(lp1946
F0
aF0
aF0
aF0
aF0
asS'm'
(lp1947
F0
aF0
aF0
aF0
aF0
asS'gmax'
p1948
(lp1949
F8.9999999999999992e-05
aF8.9999999999999992e-05
aF8.9999999999999992e-05
aF8.9999999999999992e-05
aF8.9999999999999992e-05
assS'NaF'
p1950
(dp1951
S'h'
(lp1952
F0
aF0
aF0
aF0
aF0
asS's'
(lp1953
F0
aF0
aF0
aF0
aF0
asS'm'
(lp1954
F0
aF0
aF0
aF0
aF0
asS'iNa'
p1955
(lp1956
F0
aF0
aF0
aF0
aF0
asS'gmax'
p1957
(lp1958
F0.035000000000000003
aF0.035000000000000003
aF0.035000000000000003
aF0.035000000000000003
aF0.035000000000000003
assS'HCN'
p1959
(dp1960
S'ih'
p1961
(lp1962
F0
aF0
aF0
aF0
aF0
asS'iHCN'
p1963
(lp1964
F0
aF0
aF0
aF0
aF0
asS'm'
(lp1965
F0
aF0
aF0
aF0
aF0
asS'gmax'
p1966
(lp1967
F0.0001
aF0.0001
aF0.0001
aF0.0001
aF0.0001
asssg205
g206
((ltRp1968
sg208
(dp1969
sg210
F174
sg211
(dp1970
g213
(lp1971
F1
aF1
aF1
aF1
aF1
asg215
F0
sg216
I5
sg217
(lp1972
(F8.6770000457763672
F-284.50399780273438
F5.7960000038146973
F1
tp1973
a(F8.6740207672119141
F-284.55081176757812
F5.7895197868347168
F1
tp1974
a(F8.6281280517578125
F-284.5782470703125
F5.7865042686462402
F1
tp1975
a(F8.6044254302978516
F-284.61898803710938
F5.7865042686462402
F1
tp1976
a(F8.576451301574707
F-284.64352416992188
F5.7636537551879883
F1
tp1977
a(F8.5501270294189453
F-284.6407470703125
F5.7366423606872559
F1
tp1978
a(F8.5379371643066406
F-284.605712890625
F5.7242593765258789
F1
tp1979
a(F8.4959030151367188
F-284.6265869140625
F5.7158360481262207
F1
tp1980
a(F8.4539508819580078
F-284.65005493164062
F5.7157444953918457
F1
tp1981
a(F8.4092493057250977
F-284.66732788085938
F5.7117114067077637
F1
tp1982
a(F8.383392333984375
F-284.70022583007812
F5.7050662040710449
F1
tp1983
a(F8.3409004211425781
F-284.72195434570312
F5.7044706344604492
F1
tp1984
a(F8.3100852966308594
F-284.71221923828125
F5.7345342636108398
F1
tp1985
a(F8.2614326477050781
F-284.71017456054688
F5.7379345893859863
F1
tp1986
a(F8.215484619140625
F-284.70632934570312
F5.7420320510864258
F1
tp1987
a(F8.1711320877075195
F-284.71719360351562
F5.7431683540344238
F1
tp1988
a(F8.137272834777832
F-284.74026489257812
F5.7522244453430176
F1
tp1989
a(F8.0927457809448242
F-284.7578125
F5.7551846504211426
F1
tp1990
a(F8.0462207794189453
F-284.76919555664062
F5.762352466583252
F1
tp1991
a(F7.9983844757080078
F-284.77593994140625
F5.7638096809387207
F1
tp1992
a(F7.9722800254821777
F-284.78707885742188
F5.7837910652160645
F1
tp1993
a(F7.9470834732055664
F-284.79159545898438
F5.7948451042175293
F1
tp1994
a(F7.9212632179260254
F-284.80709838867188
F5.7948451042175293
F1
tp1995
a(F7.888770580291748
F-284.81356811523438
F5.7948451042175293
F1
tp1996
asS'L'
F1
sg222
F1
ssg223
S'__nrnsec_0x56510796c540'
p1997
sg225
g206
((ltRp1998
sa(dp1999
g58
(dp2000
S'na'
p2001
(dp2002
S'ena'
p2003
(lp2004
F50
aF50
aF50
asS'dina_dv_'
p2005
(lp2006
F0
aF0
aF0
asS'nai'
p2007
(lp2008
F10
aF10
aF10
asS'nao'
p2009
(lp2010
F140
aF140
aF140
asS'ina'
p2011
(lp2012
F0
aF0
aF0
asg72
F8
ssS'k'
(dp2013
S'ek'
p2014
(lp2015
F-90
aF-90
aF-90
asS'ki'
p2016
(lp2017
F54.399999999999999
aF54.399999999999999
aF54.399999999999999
asS'ko'
p2018
(lp2019
F2.5
aF2.5
aF2.5
asS'ik'
p2020
(lp2021
F0
aF0
aF0
asS'dik_dv_'
p2022
(lp2023
F0
aF0
aF0
asg72
F8
ssS'ca'
p2024
(dp2025
S'eca'
p2026
(lp2027
F132.45793416370091
aF132.45793416370091
aF132.45793416370091
asS'dica_dv_'
p2028
(lp2029
F0
aF0
aF0
asS'ica'
p2030
(lp2031
F0
aF0
aF0
asS'cai'
p2032
(lp2033
F5.0000000000000002e-05
aF5.0000000000000002e-05
aF5.0000000000000002e-05
asS'cao'
p2034
(lp2035
F2
aF2
aF2
asg72
F247
sssg96
S'GPe[0].dend[35]'
p2036
sg98
(lp2037
F2.3999999999999999
aF2.3999999999999999
aF2.3999999999999999
asg100
I3
sg101
(dp2038
S'pas'
p2039
(dp2040
S'i'
(lp2041
F0
aF0
aF0
asS'e'
(lp2042
F-60
aF-60
aF-60
asS'g'
(lp2043
F6.802721088435374e-05
aF6.802721088435374e-05
aF6.802721088435374e-05
assS'Kv4s'
p2044
(dp2045
S'm'
(lp2046
F0
aF0
aF0
asS'h'
(lp2047
F0
aF0
aF0
asS'iKv4s'
p2048
(lp2049
F0
aF0
aF0
asS'gmax'
p2050
(lp2051
F0.0060000000000000001
aF0.0060000000000000001
aF0.0060000000000000001
assS'Kv4f'
p2052
(dp2053
S'iKv4f'
p2054
(lp2055
F0
aF0
aF0
asS'h'
(lp2056
F0
aF0
aF0
asS'm'
(lp2057
F0
aF0
aF0
asS'gmax'
p2058
(lp2059
F0.0040000000000000001
aF0.0040000000000000001
aF0.0040000000000000001
assS'HCN2'
p2060
(dp2061
S'ih'
p2062
(lp2063
F0
aF0
aF0
asS'iHCN'
p2064
(lp2065
F0
aF0
aF0
asS'm'
(lp2066
F0
aF0
aF0
asS'gmax'
p2067
(lp2068
F0.00025000000000000001
aF0.00025000000000000001
aF0.00025000000000000001
assS'KCNQ'
p2069
(dp2070
S'iKCNQ'
p2071
(lp2072
F0
aF0
aF0
asS'm'
(lp2073
F0
aF0
aF0
asS'gmax'
p2074
(lp2075
F0.00020000000000000001
aF0.00020000000000000001
aF0.00020000000000000001
assS'SK'
p2076
(dp2077
S'iSK'
p2078
(lp2079
F0
aF0
aF0
asS'm'
(lp2080
F0
aF0
aF0
asS'gmax'
p2081
(lp2082
F4.0000000000000003e-05
aF4.0000000000000003e-05
aF4.0000000000000003e-05
assS'Calcium'
p2083
(dp2084
S'tau'
p2085
(lp2086
F1
aF1
aF1
asS'depth'
p2087
(lp2088
F1600000000000
aF1600000000000
aF1600000000000
asS'cai0'
p2089
(lp2090
F5.0000000000000002e-05
aF5.0000000000000002e-05
aF5.0000000000000002e-05
assS'NaP'
p2091
(dp2092
S'h'
(lp2093
F0
aF0
aF0
asS's'
(lp2094
F0
aF0
aF0
asS'm'
(lp2095
F0
aF0
aF0
asS'iNa'
p2096
(lp2097
F0
aF0
aF0
asS'gmax'
p2098
(lp2099
F0.0001015
aF0.0001015
aF0.0001015
assS'Kv2'
p2100
(dp2101
S'm'
(lp2102
F0
aF0
aF0
asS'h'
(lp2103
F0
aF0
aF0
asS'iKv2'
p2104
(lp2105
F0
aF0
aF0
asS'gmax'
p2106
(lp2107
F0.0001
aF0.0001
aF0.0001
assS'Kv3'
p2108
(dp2109
S'h'
(lp2110
F0
aF0
aF0
asS'm'
(lp2111
F0
aF0
aF0
asS'iKv3'
p2112
(lp2113
F0
aF0
aF0
asS'gmax'
p2114
(lp2115
F0.001
aF0.001
aF0.001
assS'CaHVA'
p2116
(dp2117
S'iCaH'
p2118
(lp2119
F0
aF0
aF0
asS'm'
(lp2120
F0
aF0
aF0
asS'gmax'
p2121
(lp2122
F8.9999999999999992e-05
aF8.9999999999999992e-05
aF8.9999999999999992e-05
assS'NaF'
p2123
(dp2124
S'h'
(lp2125
F0
aF0
aF0
asS's'
(lp2126
F0
aF0
aF0
asS'm'
(lp2127
F0
aF0
aF0
asS'iNa'
p2128
(lp2129
F0
aF0
aF0
asS'gmax'
p2130
(lp2131
F0.035000000000000003
aF0.035000000000000003
aF0.035000000000000003
assS'HCN'
p2132
(dp2133
S'ih'
p2134
(lp2135
F0
aF0
aF0
asS'iHCN'
p2136
(lp2137
F0
aF0
aF0
asS'm'
(lp2138
F0
aF0
aF0
asS'gmax'
p2139
(lp2140
F0.0001
aF0.0001
aF0.0001
asssg205
g206
((ltRp2141
sg208
(dp2142
sg210
F174
sg211
(dp2143
g213
(lp2144
F1
aF1
aF1
asg215
F0
sg216
I5
sg217
(lp2145
(F8.6770000457763672
F-284.50399780273438
F5.7960000038146973
F1
tp2146
a(F8.6453571319580078
F-284.60299682617188
F5.7812128067016602
F1
tp2147
a(F8.6715106964111328
F-284.70266723632812
F5.7713160514831543
F1
tp2148
a(F8.645878791809082
F-284.79464721679688
F5.7471537590026855
F1
tp2149
a(F8.6548290252685547
F-284.9010009765625
F5.7351112365722656
F1
tp2150
a(F8.6288881301879883
F-285.00494384765625
F5.7231845855712891
F1
tp2151
a(F8.649571418762207
F-285.10604858398438
F5.7107939720153809
F1
tp2152
a(F8.6281147003173828
F-285.20791625976562
F5.6945958137512207
F1
tp2153
a(F8.6747770309448242
F-285.2652587890625
F5.6880044937133789
F1
tp2154
a(F8.7028827667236328
F-285.34146118164062
F5.6552786827087402
F1
tp2155
a(F8.7256536483764648
F-285.3973388671875
F5.5672507286071777
F1
tp2156
asS'L'
F0.99999999999999989
sg222
F1
ssg223
S'__nrnsec_0x56510796c420'
p2157
sg225
g206
((ltRp2158
sa(dp2159
g58
(dp2160
S'na'
p2161
(dp2162
S'ena'
p2163
(lp2164
F50
aF50
aF50
asS'dina_dv_'
p2165
(lp2166
F0
aF0
aF0
asS'nai'
p2167
(lp2168
F10
aF10
aF10
asS'nao'
p2169
(lp2170
F140
aF140
aF140
asS'ina'
p2171
(lp2172
F0
aF0
aF0
asg72
F8
ssS'k'
(dp2173
S'ek'
p2174
(lp2175
F-90
aF-90
aF-90
asS'ki'
p2176
(lp2177
F54.399999999999999
aF54.399999999999999
aF54.399999999999999
asS'ko'
p2178
(lp2179
F2.5
aF2.5
aF2.5
asS'ik'
p2180
(lp2181
F0
aF0
aF0
asS'dik_dv_'
p2182
(lp2183
F0
aF0
aF0
asg72
F8
ssS'ca'
p2184
(dp2185
S'eca'
p2186
(lp2187
F132.45793416370091
aF132.45793416370091
aF132.45793416370091
asS'dica_dv_'
p2188
(lp2189
F0
aF0
aF0
asS'ica'
p2190
(lp2191
F0
aF0
aF0
asS'cai'
p2192
(lp2193
F5.0000000000000002e-05
aF5.0000000000000002e-05
aF5.0000000000000002e-05
asS'cao'
p2194
(lp2195
F2
aF2
aF2
asg72
F247
sssg96
S'GPe[0].dend[25]'
p2196
sg98
(lp2197
F2.3999999999999999
aF2.3999999999999999
aF2.3999999999999999
asg100
I3
sg101
(dp2198
S'pas'
p2199
(dp2200
S'i'
(lp2201
F0
aF0
aF0
asS'e'
(lp2202
F-60
aF-60
aF-60
asS'g'
(lp2203
F6.802721088435374e-05
aF6.802721088435374e-05
aF6.802721088435374e-05
assS'Kv4s'
p2204
(dp2205
S'm'
(lp2206
F0
aF0
aF0
asS'h'
(lp2207
F0
aF0
aF0
asS'iKv4s'
p2208
(lp2209
F0
aF0
aF0
asS'gmax'
p2210
(lp2211
F0.0060000000000000001
aF0.0060000000000000001
aF0.0060000000000000001
assS'Kv4f'
p2212
(dp2213
S'iKv4f'
p2214
(lp2215
F0
aF0
aF0
asS'h'
(lp2216
F0
aF0
aF0
asS'm'
(lp2217
F0
aF0
aF0
asS'gmax'
p2218
(lp2219
F0.0040000000000000001
aF0.0040000000000000001
aF0.0040000000000000001
assS'HCN2'
p2220
(dp2221
S'ih'
p2222
(lp2223
F0
aF0
aF0
asS'iHCN'
p2224
(lp2225
F0
aF0
aF0
asS'm'
(lp2226
F0
aF0
aF0
asS'gmax'
p2227
(lp2228
F0.00025000000000000001
aF0.00025000000000000001
aF0.00025000000000000001
assS'KCNQ'
p2229
(dp2230
S'iKCNQ'
p2231
(lp2232
F0
aF0
aF0
asS'm'
(lp2233
F0
aF0
aF0
asS'gmax'
p2234
(lp2235
F0.00020000000000000001
aF0.00020000000000000001
aF0.00020000000000000001
assS'SK'
p2236
(dp2237
S'iSK'
p2238
(lp2239
F0
aF0
aF0
asS'm'
(lp2240
F0
aF0
aF0
asS'gmax'
p2241
(lp2242
F4.0000000000000003e-05
aF4.0000000000000003e-05
aF4.0000000000000003e-05
assS'Calcium'
p2243
(dp2244
S'tau'
p2245
(lp2246
F1
aF1
aF1
asS'depth'
p2247
(lp2248
F1600000000000
aF1600000000000
aF1600000000000
asS'cai0'
p2249
(lp2250
F5.0000000000000002e-05
aF5.0000000000000002e-05
aF5.0000000000000002e-05
assS'NaP'
p2251
(dp2252
S'h'
(lp2253
F0
aF0
aF0
asS's'
(lp2254
F0
aF0
aF0
asS'm'
(lp2255
F0
aF0
aF0
asS'iNa'
p2256
(lp2257
F0
aF0
aF0
asS'gmax'
p2258
(lp2259
F0.0001015
aF0.0001015
aF0.0001015
assS'Kv2'
p2260
(dp2261
S'm'
(lp2262
F0
aF0
aF0
asS'h'
(lp2263
F0
aF0
aF0
asS'iKv2'
p2264
(lp2265
F0
aF0
aF0
asS'gmax'
p2266
(lp2267
F0.0001
aF0.0001
aF0.0001
assS'Kv3'
p2268
(dp2269
S'h'
(lp2270
F0
aF0
aF0
asS'm'
(lp2271
F0
aF0
aF0
asS'iKv3'
p2272
(lp2273
F0
aF0
aF0
asS'gmax'
p2274
(lp2275
F0.001
aF0.001
aF0.001
assS'CaHVA'
p2276
(dp2277
S'iCaH'
p2278
(lp2279
F0
aF0
aF0
asS'm'
(lp2280
F0
aF0
aF0
asS'gmax'
p2281
(lp2282
F8.9999999999999992e-05
aF8.9999999999999992e-05
aF8.9999999999999992e-05
assS'NaF'
p2283
(dp2284
S'h'
(lp2285
F0
aF0
aF0
asS's'
(lp2286
F0
aF0
aF0
asS'm'
(lp2287
F0
aF0
aF0
asS'iNa'
p2288
(lp2289
F0
aF0
aF0
asS'gmax'
p2290
(lp2291
F0.035000000000000003
aF0.035000000000000003
aF0.035000000000000003
assS'HCN'
p2292
(dp2293
S'ih'
p2294
(lp2295
F0
aF0
aF0
asS'iHCN'
p2296
(lp2297
F0
aF0
aF0
asS'm'
(lp2298
F0
aF0
aF0
asS'gmax'
p2299
(lp2300
F0.0001
aF0.0001
aF0.0001
asssg205
g206
((ltRp2301
sg208
(dp2302
sg210
F174
sg211
(dp2303
g213
(lp2304
F1
aF1
aF1
asg215
F0
sg216
I6
sg217
(lp2305
(F-52.448001861572266
F-54.356998443603516
F20.23699951171875
F1
tp2306
a(F-52.521190643310547
F-54.441997528076172
F20.237907409667969
F1
tp2307
a(F-52.570014953613281
F-54.545833587646484
F20.237907409667969
F1
tp2308
a(F-52.635414123535156
F-54.639244079589844
F20.237907409667969
F1
tp2309
a(F-52.718482971191406
F-54.721912384033203
F20.237907409667969
F1
tp2310
a(F-52.772964477539062
F-54.819236755371094
F20.249197006225586
F1
tp2311
a(F-52.824016571044922
F-54.919891357421875
F20.268871307373047
F1
tp2312
a(F-52.824348449707031
F-55.002773284912109
F20.317981719970703
F1
tp2313
a(F-52.891521453857422
F-55.079509735107422
F20.332670211791992
F1
tp2314
a(F-53.001564025878906
F-55.112155914306641
F20.348123550415039
F1
tp2315
asS'L'
F1
sg222
F1
ssg223
S'__nrnsec_0x56510796c060'
p2316
sg225
g206
((ltRp2317
sa(dp2318
g58
(dp2319
S'na'
p2320
(dp2321
S'ena'
p2322
(lp2323
F50
aF50
aF50
aF50
aF50
aF50
aF50
aF50
aF50
asS'dina_dv_'
p2324
(lp2325
F0
aF0
aF0
aF0
aF0
aF0
aF0
aF0
aF0
asS'nai'
p2326
(lp2327
F10
aF10
aF10
aF10
aF10
aF10
aF10
aF10
aF10
asS'nao'
p2328
(lp2329
F140
aF140
aF140
aF140
aF140
aF140
aF140
aF140
aF140
asS'ina'
p2330
(lp2331
F0
aF0
aF0
aF0
aF0
aF0
aF0
aF0
aF0
asg72
F8
ssS'k'
(dp2332
S'ek'
p2333
(lp2334
F-90
aF-90
aF-90
aF-90
aF-90
aF-90
aF-90
aF-90
aF-90
asS'ki'
p2335
(lp2336
F54.399999999999999
aF54.399999999999999
aF54.399999999999999
aF54.399999999999999
aF54.399999999999999
aF54.399999999999999
aF54.399999999999999
aF54.399999999999999
aF54.399999999999999
asS'ko'
p2337
(lp2338
F2.5
aF2.5
aF2.5
aF2.5
aF2.5
aF2.5
aF2.5
aF2.5
aF2.5
asS'ik'
p2339
(lp2340
F0
aF0
aF0
aF0
aF0
aF0
aF0
aF0
aF0
asS'dik_dv_'
p2341
(lp2342
F0
aF0
aF0
aF0
aF0
aF0
aF0
aF0
aF0
asg72
F8
ssS'ca'
p2343
(dp2344
S'eca'
p2345
(lp2346
F132.45793416370091
aF132.45793416370091
aF132.45793416370091
aF132.45793416370091
aF132.45793416370091
aF132.45793416370091
aF132.45793416370091
aF132.45793416370091
aF132.45793416370091
asS'dica_dv_'
p2347
(lp2348
F0
aF0
aF0
aF0
aF0
aF0
aF0
aF0
aF0
asS'ica'
p2349
(lp2350
F0
aF0
aF0
aF0
aF0
aF0
aF0
aF0
aF0
asS'cai'
p2351
(lp2352
F5.0000000000000002e-05
aF5.0000000000000002e-05
aF5.0000000000000002e-05
aF5.0000000000000002e-05
aF5.0000000000000002e-05
aF5.0000000000000002e-05
aF5.0000000000000002e-05
aF5.0000000000000002e-05
aF5.0000000000000002e-05
asS'cao'
p2353
(lp2354
F2
aF2
aF2
aF2
aF2
aF2
aF2
aF2
aF2
asg72
F247
sssg96
S'GPe[0].dend[24]'
p2355
sg98
(lp2356
F2.3999999999999999
aF2.3999999999999999
aF2.3999999999999999
aF2.3999999999999999
aF2.3999999999999999
aF2.3999999999999999
aF2.3999999999999999
aF2.3999999999999999
aF2.3999999999999999
asg100
I9
sg101
(dp2357
S'pas'
p2358
(dp2359
S'i'
(lp2360
F0
aF0
aF0
aF0
aF0
aF0
aF0
aF0
aF0
asS'e'
(lp2361
F-60
aF-60
aF-60
aF-60
aF-60
aF-60
aF-60
aF-60
aF-60
asS'g'
(lp2362
F6.802721088435374e-05
aF6.802721088435374e-05
aF6.802721088435374e-05
aF6.802721088435374e-05
aF6.802721088435374e-05
aF6.802721088435374e-05
aF6.802721088435374e-05
aF6.802721088435374e-05
aF6.802721088435374e-05
assS'Kv4s'
p2363
(dp2364
S'm'
(lp2365
F0
aF0
aF0
aF0
aF0
aF0
aF0
aF0
aF0
asS'h'
(lp2366
F0
aF0
aF0
aF0
aF0
aF0
aF0
aF0
aF0
asS'iKv4s'
p2367
(lp2368
F0
aF0
aF0
aF0
aF0
aF0
aF0
aF0
aF0
asS'gmax'
p2369
(lp2370
F0.0060000000000000001
aF0.0060000000000000001
aF0.0060000000000000001
aF0.0060000000000000001
aF0.0060000000000000001
aF0.0060000000000000001
aF0.0060000000000000001
aF0.0060000000000000001
aF0.0060000000000000001
assS'Kv4f'
p2371
(dp2372
S'iKv4f'
p2373
(lp2374
F0
aF0
aF0
aF0
aF0
aF0
aF0
aF0
aF0
asS'h'
(lp2375
F0
aF0
aF0
aF0
aF0
aF0
aF0
aF0
aF0
asS'm'
(lp2376
F0
aF0
aF0
aF0
aF0
aF0
aF0
aF0
aF0
asS'gmax'
p2377
(lp2378
F0.0040000000000000001
aF0.0040000000000000001
aF0.0040000000000000001
aF0.0040000000000000001
aF0.0040000000000000001
aF0.0040000000000000001
aF0.0040000000000000001
aF0.0040000000000000001
aF0.0040000000000000001
assS'HCN2'
p2379
(dp2380
S'ih'
p2381
(lp2382
F0
aF0
aF0
aF0
aF0
aF0
aF0
aF0
aF0
asS'iHCN'
p2383
(lp2384
F0
aF0
aF0
aF0
aF0
aF0
aF0
aF0
aF0
asS'm'
(lp2385
F0
aF0
aF0
aF0
aF0
aF0
aF0
aF0
aF0
asS'gmax'
p2386
(lp2387
F0.00025000000000000001
aF0.00025000000000000001
aF0.00025000000000000001
aF0.00025000000000000001
aF0.00025000000000000001
aF0.00025000000000000001
aF0.00025000000000000001
aF0.00025000000000000001
aF0.00025000000000000001
assS'KCNQ'
p2388
(dp2389
S'iKCNQ'
p2390
(lp2391
F0
aF0
aF0
aF0
aF0
aF0
aF0
aF0
aF0
asS'm'
(lp2392
F0
aF0
aF0
aF0
aF0
aF0
aF0
aF0
aF0
asS'gmax'
p2393
(lp2394
F0.00020000000000000001
aF0.00020000000000000001
aF0.00020000000000000001
aF0.00020000000000000001
aF0.00020000000000000001
aF0.00020000000000000001
aF0.00020000000000000001
aF0.00020000000000000001
aF0.00020000000000000001
assS'SK'
p2395
(dp2396
S'iSK'
p2397
(lp2398
F0
aF0
aF0
aF0
aF0
aF0
aF0
aF0
aF0
asS'm'
(lp2399
F0
aF0
aF0
aF0
aF0
aF0
aF0
aF0
aF0
asS'gmax'
p2400
(lp2401
F4.0000000000000003e-05
aF4.0000000000000003e-05
aF4.0000000000000003e-05
aF4.0000000000000003e-05
aF4.0000000000000003e-05
aF4.0000000000000003e-05
aF4.0000000000000003e-05
aF4.0000000000000003e-05
aF4.0000000000000003e-05
assS'Calcium'
p2402
(dp2403
S'tau'
p2404
(lp2405
F1
aF1
aF1
aF1
aF1
aF1
aF1
aF1
aF1
asS'depth'
p2406
(lp2407
F1600000000000
aF1600000000000
aF1600000000000
aF1600000000000
aF1600000000000
aF1600000000000
aF1600000000000
aF1600000000000
aF1600000000000
asS'cai0'
p2408
(lp2409
F5.0000000000000002e-05
aF5.0000000000000002e-05
aF5.0000000000000002e-05
aF5.0000000000000002e-05
aF5.0000000000000002e-05
aF5.0000000000000002e-05
aF5.0000000000000002e-05
aF5.0000000000000002e-05
aF5.0000000000000002e-05
assS'NaP'
p2410
(dp2411
S'h'
(lp2412
F0
aF0
aF0
aF0
aF0
aF0
aF0
aF0
aF0
asS's'
(lp2413
F0
aF0
aF0
aF0
aF0
aF0
aF0
aF0
aF0
asS'm'
(lp2414
F0
aF0
aF0
aF0
aF0
aF0
aF0
aF0
aF0
asS'iNa'
p2415
(lp2416
F0
aF0
aF0
aF0
aF0
aF0
aF0
aF0
aF0
asS'gmax'
p2417
(lp2418
F0.0001015
aF0.0001015
aF0.0001015
aF0.0001015
aF0.0001015
aF0.0001015
aF0.0001015
aF0.0001015
aF0.0001015
assS'Kv2'
p2419
(dp2420
S'm'
(lp2421
F0
aF0
aF0
aF0
aF0
aF0
aF0
aF0
aF0
asS'h'
(lp2422
F0
aF0
aF0
aF0
aF0
aF0
aF0
aF0
aF0
asS'iKv2'
p2423
(lp2424
F0
aF0
aF0
aF0
aF0
aF0
aF0
aF0
aF0
asS'gmax'
p2425
(lp2426
F0.0001
aF0.0001
aF0.0001
aF0.0001
aF0.0001
aF0.0001
aF0.0001
aF0.0001
aF0.0001
assS'Kv3'
p2427
(dp2428
S'h'
(lp2429
F0
aF0
aF0
aF0
aF0
aF0
aF0
aF0
aF0
asS'm'
(lp2430
F0
aF0
aF0
aF0
aF0
aF0
aF0
aF0
aF0
asS'iKv3'
p2431
(lp2432
F0
aF0
aF0
aF0
aF0
aF0
aF0
aF0
aF0
asS'gmax'
p2433
(lp2434
F0.001
aF0.001
aF0.001
aF0.001
aF0.001
aF0.001
aF0.001
aF0.001
aF0.001
assS'CaHVA'
p2435
(dp2436
S'iCaH'
p2437
(lp2438
F0
aF0
aF0
aF0
aF0
aF0
aF0
aF0
aF0
asS'm'
(lp2439
F0
aF0
aF0
aF0
aF0
aF0
aF0
aF0
aF0
asS'gmax'
p2440
(lp2441
F4.4999999999999996e-05
aF4.4999999999999996e-05
aF4.4999999999999996e-05
aF8.9999999999999992e-05
aF8.9999999999999992e-05
aF8.9999999999999992e-05
aF8.9999999999999992e-05
aF8.9999999999999992e-05
aF8.9999999999999992e-05
assS'NaF'
p2442
(dp2443
S'h'
(lp2444
F0
aF0
aF0
aF0
aF0
aF0
aF0
aF0
aF0
asS's'
(lp2445
F0
aF0
aF0
aF0
aF0
aF0
aF0
aF0
aF0
asS'm'
(lp2446
F0
aF0
aF0
aF0
aF0
aF0
aF0
aF0
aF0
asS'iNa'
p2447
(lp2448
F0
aF0
aF0
aF0
aF0
aF0
aF0
aF0
aF0
asS'gmax'
p2449
(lp2450
F0.035000000000000003
aF0.035000000000000003
aF0.035000000000000003
aF0.035000000000000003
aF0.035000000000000003
aF0.035000000000000003
aF0.035000000000000003
aF0.035000000000000003
aF0.035000000000000003
assS'HCN'
p2451
(dp2452
S'ih'
p2453
(lp2454
F0
aF0
aF0
aF0
aF0
aF0
aF0
aF0
aF0
asS'iHCN'
p2455
(lp2456
F0
aF0
aF0
aF0
aF0
aF0
aF0
aF0
aF0
asS'm'
(lp2457
F0
aF0
aF0
aF0
aF0
aF0
aF0
aF0
aF0
asS'gmax'
p2458
(lp2459
F0.0001
aF0.0001
aF0.0001
aF0.0001
aF0.0001
aF0.0001
aF0.0001
aF0.0001
aF0.0001
asssg205
g206
((ltRp2460
sg208
(dp2461
sg210
F174
sg211
(dp2462
g213
(lp2463
F1
aF1
aF1
aF1
aF1
aF1
aF1
aF1
aF1
asg215
F0
sg216
I6
sg217
(lp2464
(F-52.448001861572266
F-54.356998443603516
F20.23699951171875
F1
tp2465
a(F-52.478446960449219
F-54.360652923583984
F20.23847770690918
F1
tp2466
a(F-52.499034881591797
F-54.376621246337891
F20.249111175537109
F1
tp2467
a(F-52.523941040039062
F-54.383106231689453
F20.257001876831055
F1
tp2468
a(F-52.551948547363281
F-54.381294250488281
F20.26057243347168
F1
tp2469
a(F-52.578762054443359
F-54.385173797607422
F20.265544891357422
F1
tp2470
a(F-52.599906921386719
F-54.37762451171875
F20.275913238525391
F1
tp2471
a(F-52.62091064453125
F-54.369396209716797
F20.277641296386719
F1
tp2472
a(F-52.640213012695312
F-54.376945495605469
F20.290428161621094
F1
tp2473
a(F-52.667037963867188
F-54.37310791015625
F20.29356575012207
F1
tp2474
a(F-52.691009521484375
F-54.368385314941406
F20.304018020629883
F1
tp2475
a(F-52.713222503662109
F-54.367164611816406
F20.319246292114258
F1
tp2476
a(F-52.735401153564453
F-54.365463256835938
F20.325984954833984
F1
tp2477
a(F-52.758129119873047
F-54.364261627197266
F20.325984954833984
F1
tp2478
a(F-52.768745422363281
F-54.360683441162109
F20.33380126953125
F1
tp2479
a(F-52.785308837890625
F-54.361656188964844
F20.336954116821289
F1
tp2480
a(F-52.805217742919922
F-54.367912292480469
F20.336954116821289
F1
tp2481
a(F-52.822608947753906
F-54.358291625976562
F20.336954116821289
F1
tp2482
a(F-52.842830657958984
F-54.35406494140625
F20.339052200317383
F1
tp2483
a(F-52.863006591796875
F-54.350502014160156
F20.343029022216797
F1
tp2484
a(F-52.883247375488281
F-54.347015380859375
F20.346563339233398
F1
tp2485
a(F-52.900970458984375
F-54.338436126708984
F20.347873687744141
F1
tp2486
a(F-52.919452667236328
F-54.331607818603516
F20.347873687744141
F1
tp2487
a(F-52.939353942871094
F-54.328201293945312
F20.348350524902344
F1
tp2488
a(F-52.95947265625
F-54.326179504394531
F20.349040985107422
F1
tp2489
a(F-52.978172302246094
F-54.3172607421875
F20.349040985107422
F1
tp2490
a(F-52.997535705566406
F-54.309535980224609
F20.349040985107422
F1
tp2491
a(F-53.011417388916016
F-54.296146392822266
F20.349040985107422
F1
tp2492
a(F-53.027587890625
F-54.283073425292969
F20.34874153137207
F1
tp2493
a(F-53.040851593017578
F-54.267124176025391
F20.346420288085938
F1
tp2494
a(F-53.054386138916016
F-54.251747131347656
F20.346145629882812
F1
tp2495
a(F-53.068073272705078
F-54.239421844482422
F20.346145629882812
F1
tp2496
a(F-53.087615966796875
F-54.234222412109375
F20.346145629882812
F1
tp2497
a(F-53.095893859863281
F-54.223480224609375
F20.359020233154297
F1
tp2498
a(F-53.106296539306641
F-54.217350006103516
F20.375326156616211
F1
tp2499
a(F-53.117824554443359
F-54.208652496337891
F20.387636184692383
F1
tp2500
a(F-53.135562896728516
F-54.200115203857422
F20.386051177978516
F1
tp2501
a(F-53.153583526611328
F-54.189689636230469
F20.385908126831055
F1
tp2502
a(F-53.169342041015625
F-54.176422119140625
F20.384426116943359
F1
tp2503
a(F-53.184597015380859
F-54.162410736083984
F20.381866455078125
F1
tp2504
a(F-53.191783905029297
F-54.143039703369141
F20.381847381591797
F1
tp2505
a(F-53.207271575927734
F-54.129768371582031
F20.381847381591797
F1
tp2506
a(F-53.217525482177734
F-54.114120483398438
F20.388620376586914
F1
tp2507
a(F-53.225006103515625
F-54.097026824951172
F20.397909164428711
F1
tp2508
a(F-53.228172302246094
F-54.077739715576172
F20.403059005737305
F1
tp2509
a(F-53.234848022460938
F-54.059879302978516
F20.411544799804688
F1
tp2510
a(F-53.234272003173828
F-54.042964935302734
F20.42506217956543
F1
tp2511
asS'L'
F1
sg222
F1
ssg223
S'__nrnsec_0x56510796c000'
p2512
sg225
g206
((ltRp2513
sa(dp2514
g58
(dp2515
S'na'
p2516
(dp2517
S'ena'
p2518
(lp2519
F50
aF50
aF50
asS'dina_dv_'
p2520
(lp2521
F0
aF0
aF0
asS'nai'
p2522
(lp2523
F10
aF10
aF10
asS'nao'
p2524
(lp2525
F140
aF140
aF140
asS'ina'
p2526
(lp2527
F0
aF0
aF0
asg72
F8
ssS'k'
(dp2528
S'ek'
p2529
(lp2530
F-90
aF-90
aF-90
asS'ki'
p2531
(lp2532
F54.399999999999999
aF54.399999999999999
aF54.399999999999999
asS'ko'
p2533
(lp2534
F2.5
aF2.5
aF2.5
asS'ik'
p2535
(lp2536
F0
aF0
aF0
asS'dik_dv_'
p2537
(lp2538
F0
aF0
aF0
asg72
F8
ssS'ca'
p2539
(dp2540
S'eca'
p2541
(lp2542
F132.45793416370091
aF132.45793416370091
aF132.45793416370091
asS'dica_dv_'
p2543
(lp2544
F0
aF0
aF0
asS'ica'
p2545
(lp2546
F0
aF0
aF0
asS'cai'
p2547
(lp2548
F5.0000000000000002e-05
aF5.0000000000000002e-05
aF5.0000000000000002e-05
asS'cao'
p2549
(lp2550
F2
aF2
aF2
asg72
F247
sssg96
S'GPe[0].dend[21]'
p2551
sg98
(lp2552
F2.3999999999999999
aF2.3999999999999999
aF2.3999999999999999
asg100
I3
sg101
(dp2553
S'pas'
p2554
(dp2555
S'i'
(lp2556
F0
aF0
aF0
asS'e'
(lp2557
F-60
aF-60
aF-60
asS'g'
(lp2558
F6.802721088435374e-05
aF6.802721088435374e-05
aF6.802721088435374e-05
assS'Kv4s'
p2559
(dp2560
S'm'
(lp2561
F0
aF0
aF0
asS'h'
(lp2562
F0
aF0
aF0
asS'iKv4s'
p2563
(lp2564
F0
aF0
aF0
asS'gmax'
p2565
(lp2566
F0.0060000000000000001
aF0.0060000000000000001
aF0.0060000000000000001
assS'Kv4f'
p2567
(dp2568
S'iKv4f'
p2569
(lp2570
F0
aF0
aF0
asS'h'
(lp2571
F0
aF0
aF0
asS'm'
(lp2572
F0
aF0
aF0
asS'gmax'
p2573
(lp2574
F0.0040000000000000001
aF0.0040000000000000001
aF0.0040000000000000001
assS'HCN2'
p2575
(dp2576
S'ih'
p2577
(lp2578
F0
aF0
aF0
asS'iHCN'
p2579
(lp2580
F0
aF0
aF0
asS'm'
(lp2581
F0
aF0
aF0
asS'gmax'
p2582
(lp2583
F0.00025000000000000001
aF0.00025000000000000001
aF0.00025000000000000001
assS'KCNQ'
p2584
(dp2585
S'iKCNQ'
p2586
(lp2587
F0
aF0
aF0
asS'm'
(lp2588
F0
aF0
aF0
asS'gmax'
p2589
(lp2590
F0.00020000000000000001
aF0.00020000000000000001
aF0.00020000000000000001
assS'SK'
p2591
(dp2592
S'iSK'
p2593
(lp2594
F0
aF0
aF0
asS'm'
(lp2595
F0
aF0
aF0
asS'gmax'
p2596
(lp2597
F4.0000000000000003e-05
aF4.0000000000000003e-05
aF4.0000000000000003e-05
assS'Calcium'
p2598
(dp2599
S'tau'
p2600
(lp2601
F1
aF1
aF1
asS'depth'
p2602
(lp2603
F1600000000000
aF1600000000000
aF1600000000000
asS'cai0'
p2604
(lp2605
F5.0000000000000002e-05
aF5.0000000000000002e-05
aF5.0000000000000002e-05
assS'NaP'
p2606
(dp2607
S'h'
(lp2608
F0
aF0
aF0
asS's'
(lp2609
F0
aF0
aF0
asS'm'
(lp2610
F0
aF0
aF0
asS'iNa'
p2611
(lp2612
F0
aF0
aF0
asS'gmax'
p2613
(lp2614
F0.0001015
aF0.0001015
aF0.0001015
assS'Kv2'
p2615
(dp2616
S'm'
(lp2617
F0
aF0
aF0
asS'h'
(lp2618
F0
aF0
aF0
asS'iKv2'
p2619
(lp2620
F0
aF0
aF0
asS'gmax'
p2621
(lp2622
F0.0001
aF0.0001
aF0.0001
assS'Kv3'
p2623
(dp2624
S'h'
(lp2625
F0
aF0
aF0
asS'm'
(lp2626
F0
aF0
aF0
asS'iKv3'
p2627
(lp2628
F0
aF0
aF0
asS'gmax'
p2629
(lp2630
F0.001
aF0.001
aF0.001
assS'CaHVA'
p2631
(dp2632
S'iCaH'
p2633
(lp2634
F0
aF0
aF0
asS'm'
(lp2635
F0
aF0
aF0
asS'gmax'
p2636
(lp2637
F8.9999999999999992e-05
aF8.9999999999999992e-05
aF8.9999999999999992e-05
assS'NaF'
p2638
(dp2639
S'h'
(lp2640
F0
aF0
aF0
asS's'
(lp2641
F0
aF0
aF0
asS'm'
(lp2642
F0
aF0
aF0
asS'iNa'
p2643
(lp2644
F0
aF0
aF0
asS'gmax'
p2645
(lp2646
F0.035000000000000003
aF0.035000000000000003
aF0.035000000000000003
assS'HCN'
p2647
(dp2648
S'ih'
p2649
(lp2650
F0
aF0
aF0
asS'iHCN'
p2651
(lp2652
F0
aF0
aF0
asS'm'
(lp2653
F0
aF0
aF0
asS'gmax'
p2654
(lp2655
F0.0001
aF0.0001
aF0.0001
asssg205
g206
((ltRp2656
sg208
(dp2657
sg210
F174
sg211
(dp2658
g213
(lp2659
F1
aF1
aF1
asg215
F0
sg216
I7
sg217
(lp2660
(F-181.16000366210938
F-91.120002746582031
F22.909999847412109
F1
tp2661
a(F-181.19001770019531
F-91.15771484375
F22.922689437866211
F1
tp2662
a(F-181.20584106445312
F-91.229713439941406
F22.955673217773438
F1
tp2663
a(F-181.22166442871094
F-91.306060791015625
F22.968704223632812
F1
tp2664
a(F-181.26708984375
F-91.370445251464844
F22.968704223632812
F1
tp2665
a(F-181.33842468261719
F-91.40704345703125
F22.968704223632812
F1
tp2666
a(F-181.41305541992188
F-91.434013366699219
F22.968704223632812
F1
tp2667
a(F-181.48834228515625
F-91.460647583007812
F22.97357177734375
F1
tp2668
a(F-181.55880737304688
F-91.495491027832031
F22.989482879638672
F1
tp2669
a(F-181.62643432617188
F-91.532196044921875
F23.014001846313477
F1
tp2670
a(F-181.69511413574219
F-91.569801330566406
F23.033742904663086
F1
tp2671
a(F-181.75300598144531
F-91.587791442871094
F23.037788391113281
F1
tp2672
a(F-181.80807495117188
F-91.600425720214844
F23.037788391113281
F1
tp2673
a(F-181.86351013183594
F-91.605575561523438
F23.039148330688477
F1
tp2674
a(F-181.90919494628906
F-91.627212524414062
F23.066244125366211
F1
tp2675
asS'L'
F0.99999999999999989
sg222
F1
ssg223
S'__nrnsec_0x56510796bee0'
p2676
sg225
g206
((ltRp2677
sa(dp2678
g58
(dp2679
S'na'
p2680
(dp2681
S'ena'
p2682
(lp2683
F50
asS'dina_dv_'
p2684
(lp2685
F0
asS'nai'
p2686
(lp2687
F10
asS'nao'
p2688
(lp2689
F140
asS'ina'
p2690
(lp2691
F0
asg72
F8
ssS'k'
(dp2692
S'ek'
p2693
(lp2694
F-90
asS'ki'
p2695
(lp2696
F54.399999999999999
asS'ko'
p2697
(lp2698
F2.5
asS'ik'
p2699
(lp2700
F0
asS'dik_dv_'
p2701
(lp2702
F0
asg72
F8
ssS'ca'
p2703
(dp2704
S'eca'
p2705
(lp2706
F132.45793416370091
asS'dica_dv_'
p2707
(lp2708
F0
asS'ica'
p2709
(lp2710
F0
asS'cai'
p2711
(lp2712
F5.0000000000000002e-05
asS'cao'
p2713
(lp2714
F2
asg72
F247
sssg96
S'GPe[0].dend[18]'
p2715
sg98
(lp2716
F2.3999999999999999
asg100
I1
sg101
(dp2717
S'pas'
p2718
(dp2719
S'i'
(lp2720
F0
asS'e'
(lp2721
F-60
asS'g'
(lp2722
F6.802721088435374e-05
assS'Kv4s'
p2723
(dp2724
S'm'
(lp2725
F0
asS'h'
(lp2726
F0
asS'iKv4s'
p2727
(lp2728
F0
asS'gmax'
p2729
(lp2730
F0.0060000000000000001
assS'Kv4f'
p2731
(dp2732
S'iKv4f'
p2733
(lp2734
F0
asS'h'
(lp2735
F0
asS'm'
(lp2736
F0
asS'gmax'
p2737
(lp2738
F0.0040000000000000001
assS'HCN2'
p2739
(dp2740
S'ih'
p2741
(lp2742
F0
asS'iHCN'
p2743
(lp2744
F0
asS'm'
(lp2745
F0
asS'gmax'
p2746
(lp2747
F0.00025000000000000001
assS'KCNQ'
p2748
(dp2749
S'iKCNQ'
p2750
(lp2751
F0
asS'm'
(lp2752
F0
asS'gmax'
p2753
(lp2754
F0.00020000000000000001
assS'SK'
p2755
(dp2756
S'iSK'
p2757
(lp2758
F0
asS'm'
(lp2759
F0
asS'gmax'
p2760
(lp2761
F4.0000000000000003e-05
assS'Calcium'
p2762
(dp2763
S'tau'
p2764
(lp2765
F1
asS'depth'
p2766
(lp2767
F1600000000000
asS'cai0'
p2768
(lp2769
F5.0000000000000002e-05
assS'NaP'
p2770
(dp2771
S'h'
(lp2772
F0
asS's'
(lp2773
F0
asS'm'
(lp2774
F0
asS'iNa'
p2775
(lp2776
F0
asS'gmax'
p2777
(lp2778
F0.0001015
assS'Kv2'
p2779
(dp2780
S'm'
(lp2781
F0
asS'h'
(lp2782
F0
asS'iKv2'
p2783
(lp2784
F0
asS'gmax'
p2785
(lp2786
F0.0001
assS'Kv3'
p2787
(dp2788
S'h'
(lp2789
F0
asS'm'
(lp2790
F0
asS'iKv3'
p2791
(lp2792
F0
asS'gmax'
p2793
(lp2794
F0.001
assS'CaHVA'
p2795
(dp2796
S'iCaH'
p2797
(lp2798
F0
asS'm'
(lp2799
F0
asS'gmax'
p2800
(lp2801
F8.9999999999999992e-05
assS'NaF'
p2802
(dp2803
S'h'
(lp2804
F0
asS's'
(lp2805
F0
asS'm'
(lp2806
F0
asS'iNa'
p2807
(lp2808
F0
asS'gmax'
p2809
(lp2810
F0.035000000000000003
assS'HCN'
p2811
(dp2812
S'ih'
p2813
(lp2814
F0
asS'iHCN'
p2815
(lp2816
F0
asS'm'
(lp2817
F0
asS'gmax'
p2818
(lp2819
F0.0001
asssg205
g206
((ltRp2820
sg208
(dp2821
sg210
F174
sg211
(dp2822
g213
(lp2823
F1
asg215
F0
sg216
I7
sg217
(lp2824
(F-181.16000366210938
F-91.120002746582031
F22.909999847412109
F1
tp2825
a(F-181.10520935058594
F-91.23297119140625
F22.979713439941406
F1
tp2826
a(F-181.07342529296875
F-91.379013061523438
F22.979713439941406
F1
tp2827
a(F-180.97303771972656
F-91.44775390625
F22.979713439941406
F1
tp2828
a(F-180.90521240234375
F-91.579757690429688
F22.979713439941406
F1
tp2829
a(F-180.82705688476562
F-91.689353942871094
F22.979713439941406
F1
tp2830
a(F-180.72000122070312
F-91.7947998046875
F22.979713439941406
F1
tp2831
a(F-180.57926940917969
F-91.852165222167969
F22.979713439941406
F1
tp2832
asS'L'
F1
sg222
F1
ssg223
S'__nrnsec_0x56510796bdc0'
p2833
sg225
g206
((ltRp2834
sa(dp2835
g58
(dp2836
S'na'
p2837
(dp2838
S'ena'
p2839
(lp2840
F50
aF50
aF50
aF50
aF50
asS'dina_dv_'
p2841
(lp2842
F0
aF0
aF0
aF0
aF0
asS'nai'
p2843
(lp2844
F10
aF10
aF10
aF10
aF10
asS'nao'
p2845
(lp2846
F140
aF140
aF140
aF140
aF140
asS'ina'
p2847
(lp2848
F0
aF0
aF0
aF0
aF0
asg72
F8
ssS'k'
(dp2849
S'ek'
p2850
(lp2851
F-90
aF-90
aF-90
aF-90
aF-90
asS'ki'
p2852
(lp2853
F54.399999999999999
aF54.399999999999999
aF54.399999999999999
aF54.399999999999999
aF54.399999999999999
asS'ko'
p2854
(lp2855
F2.5
aF2.5
aF2.5
aF2.5
aF2.5
asS'ik'
p2856
(lp2857
F0
aF0
aF0
aF0
aF0
asS'dik_dv_'
p2858
(lp2859
F0
aF0
aF0
aF0
aF0
asg72
F8
ssS'ca'
p2860
(dp2861
S'eca'
p2862
(lp2863
F132.45793416370091
aF132.45793416370091
aF132.45793416370091
aF132.45793416370091
aF132.45793416370091
asS'dica_dv_'
p2864
(lp2865
F0
aF0
aF0
aF0
aF0
asS'ica'
p2866
(lp2867
F0
aF0
aF0
aF0
aF0
asS'cai'
p2868
(lp2869
F5.0000000000000002e-05
aF5.0000000000000002e-05
aF5.0000000000000002e-05
aF5.0000000000000002e-05
aF5.0000000000000002e-05
asS'cao'
p2870
(lp2871
F2
aF2
aF2
aF2
aF2
asg72
F247
sssg96
S'GPe[0].dend[14]'
p2872
sg98
(lp2873
F2.3999999999999999
aF2.3999999999999999
aF2.3999999999999999
aF2.3999999999999999
aF2.3999999999999999
asg100
I5
sg101
(dp2874
S'pas'
p2875
(dp2876
S'i'
(lp2877
F0
aF0
aF0
aF0
aF0
asS'e'
(lp2878
F-60
aF-60
aF-60
aF-60
aF-60
asS'g'
(lp2879
F6.802721088435374e-05
aF6.802721088435374e-05
aF6.802721088435374e-05
aF6.802721088435374e-05
aF6.802721088435374e-05
assS'Kv4s'
p2880
(dp2881
S'm'
(lp2882
F0
aF0
aF0
aF0
aF0
asS'h'
(lp2883
F0
aF0
aF0
aF0
aF0
asS'iKv4s'
p2884
(lp2885
F0
aF0
aF0
aF0
aF0
asS'gmax'
p2886
(lp2887
F0.0060000000000000001
aF0.0060000000000000001
aF0.0060000000000000001
aF0.0060000000000000001
aF0.0060000000000000001
assS'Kv4f'
p2888
(dp2889
S'iKv4f'
p2890
(lp2891
F0
aF0
aF0
aF0
aF0
asS'h'
(lp2892
F0
aF0
aF0
aF0
aF0
asS'm'
(lp2893
F0
aF0
aF0
aF0
aF0
asS'gmax'
p2894
(lp2895
F0.0040000000000000001
aF0.0040000000000000001
aF0.0040000000000000001
aF0.0040000000000000001
aF0.0040000000000000001
assS'HCN2'
p2896
(dp2897
S'ih'
p2898
(lp2899
F0
aF0
aF0
aF0
aF0
asS'iHCN'
p2900
(lp2901
F0
aF0
aF0
aF0
aF0
asS'm'
(lp2902
F0
aF0
aF0
aF0
aF0
asS'gmax'
p2903
(lp2904
F0.00025000000000000001
aF0.00025000000000000001
aF0.00025000000000000001
aF0.00025000000000000001
aF0.00025000000000000001
assS'KCNQ'
p2905
(dp2906
S'iKCNQ'
p2907
(lp2908
F0
aF0
aF0
aF0
aF0
asS'm'
(lp2909
F0
aF0
aF0
aF0
aF0
asS'gmax'
p2910
(lp2911
F0.00020000000000000001
aF0.00020000000000000001
aF0.00020000000000000001
aF0.00020000000000000001
aF0.00020000000000000001
assS'SK'
p2912
(dp2913
S'iSK'
p2914
(lp2915
F0
aF0
aF0
aF0
aF0
asS'm'
(lp2916
F0
aF0
aF0
aF0
aF0
asS'gmax'
p2917
(lp2918
F4.0000000000000003e-05
aF4.0000000000000003e-05
aF4.0000000000000003e-05
aF4.0000000000000003e-05
aF4.0000000000000003e-05
assS'Calcium'
p2919
(dp2920
S'tau'
p2921
(lp2922
F1
aF1
aF1
aF1
aF1
asS'depth'
p2923
(lp2924
F1600000000000
aF1600000000000
aF1600000000000
aF1600000000000
aF1600000000000
asS'cai0'
p2925
(lp2926
F5.0000000000000002e-05
aF5.0000000000000002e-05
aF5.0000000000000002e-05
aF5.0000000000000002e-05
aF5.0000000000000002e-05
assS'NaP'
p2927
(dp2928
S'h'
(lp2929
F0
aF0
aF0
aF0
aF0
asS's'
(lp2930
F0
aF0
aF0
aF0
aF0
asS'm'
(lp2931
F0
aF0
aF0
aF0
aF0
asS'iNa'
p2932
(lp2933
F0
aF0
aF0
aF0
aF0
asS'gmax'
p2934
(lp2935
F0.0001015
aF0.0001015
aF0.0001015
aF0.0001015
aF0.0001015
assS'Kv2'
p2936
(dp2937
S'm'
(lp2938
F0
aF0
aF0
aF0
aF0
asS'h'
(lp2939
F0
aF0
aF0
aF0
aF0
asS'iKv2'
p2940
(lp2941
F0
aF0
aF0
aF0
aF0
asS'gmax'
p2942
(lp2943
F0.0001
aF0.0001
aF0.0001
aF0.0001
aF0.0001
assS'Kv3'
p2944
(dp2945
S'h'
(lp2946
F0
aF0
aF0
aF0
aF0
asS'm'
(lp2947
F0
aF0
aF0
aF0
aF0
asS'iKv3'
p2948
(lp2949
F0
aF0
aF0
aF0
aF0
asS'gmax'
p2950
(lp2951
F0.001
aF0.001
aF0.001
aF0.001
aF0.001
assS'CaHVA'
p2952
(dp2953
S'iCaH'
p2954
(lp2955
F0
aF0
aF0
aF0
aF0
asS'm'
(lp2956
F0
aF0
aF0
aF0
aF0
asS'gmax'
p2957
(lp2958
F3.0000000000000001e-05
aF3.0000000000000001e-05
aF3.0000000000000001e-05
aF3.0000000000000001e-05
aF3.0000000000000001e-05
assS'NaF'
p2959
(dp2960
S'h'
(lp2961
F0
aF0
aF0
aF0
aF0
asS's'
(lp2962
F0
aF0
aF0
aF0
aF0
asS'm'
(lp2963
F0
aF0
aF0
aF0
aF0
asS'iNa'
p2964
(lp2965
F0
aF0
aF0
aF0
aF0
asS'gmax'
p2966
(lp2967
F0.035000000000000003
aF0.035000000000000003
aF0.035000000000000003
aF0.035000000000000003
aF0.035000000000000003
assS'HCN'
p2968
(dp2969
S'ih'
p2970
(lp2971
F0
aF0
aF0
aF0
aF0
asS'iHCN'
p2972
(lp2973
F0
aF0
aF0
aF0
aF0
asS'm'
(lp2974
F0
aF0
aF0
aF0
aF0
asS'gmax'
p2975
(lp2976
F0.0001
aF0.0001
aF0.0001
aF0.0001
aF0.0001
asssg205
g206
((ltRp2977
sg208
(dp2978
sg210
F174
sg211
(dp2979
g213
(lp2980
F1
aF1
aF1
aF1
aF1
asg215
F0
sg216
I8
sg217
(lp2981
(F-171.38999938964844
F-51.950000762939453
F20.979999542236328
F1
tp2982
a(F-171.4375
F-51.952419281005859
F21.041133880615234
F1
tp2983
a(F-171.45089721679688
F-51.999038696289062
F21.099266052246094
F1
tp2984
a(F-171.50370788574219
F-52.048290252685547
F21.12330436706543
F1
tp2985
a(F-171.47175598144531
F-52.090091705322266
F21.158561706542969
F1
tp2986
a(F-171.52262878417969
F-52.1156005859375
F21.17365837097168
F1
tp2987
a(F-171.51783752441406
F-52.160877227783203
F21.153781890869141
F1
tp2988
a(F-171.55056762695312
F-52.208660125732422
F21.189786911010742
F1
tp2989
a(F-171.59959411621094
F-52.214103698730469
F21.20994758605957
F1
tp2990
a(F-171.58271789550781
F-52.246322631835938
F21.262363433837891
F1
tp2991
a(F-171.64125061035156
F-52.239337921142578
F21.294631958007812
F1
tp2992
a(F-171.67237854003906
F-52.250602722167969
F21.376827239990234
F1
tp2993
a(F-171.7216796875
F-52.240631103515625
F21.415700912475586
F1
tp2994
a(F-171.73551940917969
F-52.270717620849609
F21.475696563720703
F1
tp2995
a(F-171.79096984863281
F-52.283988952636719
F21.487270355224609
F1
tp2996
a(F-171.83956909179688
F-52.299724578857422
F21.531328201293945
F1
tp2997
asS'L'
F1
sg222
F1
ssg223
S'__nrnsec_0x56510796bc40'
p2998
sg225
g206
((ltRp2999
sa(dp3000
g58
(dp3001
S'na'
p3002
(dp3003
S'ena'
p3004
(lp3005
F50
asS'dina_dv_'
p3006
(lp3007
F0
asS'nai'
p3008
(lp3009
F10
asS'nao'
p3010
(lp3011
F140
asS'ina'
p3012
(lp3013
F0
asg72
F8
ssS'k'
(dp3014
S'ek'
p3015
(lp3016
F-90
asS'ki'
p3017
(lp3018
F54.399999999999999
asS'ko'
p3019
(lp3020
F2.5
asS'ik'
p3021
(lp3022
F0
asS'dik_dv_'
p3023
(lp3024
F0
asg72
F8
ssS'ca'
p3025
(dp3026
S'eca'
p3027
(lp3028
F132.45793416370091
asS'dica_dv_'
p3029
(lp3030
F0
asS'ica'
p3031
(lp3032
F0
asS'cai'
p3033
(lp3034
F5.0000000000000002e-05
asS'cao'
p3035
(lp3036
F2
asg72
F247
sssg96
S'GPe[0].dend[13]'
p3037
sg98
(lp3038
F2.3999999999999999
asg100
I1
sg101
(dp3039
S'pas'
p3040
(dp3041
S'i'
(lp3042
F0
asS'e'
(lp3043
F-60
asS'g'
(lp3044
F6.802721088435374e-05
assS'Kv4s'
p3045
(dp3046
S'm'
(lp3047
F0
asS'h'
(lp3048
F0
asS'iKv4s'
p3049
(lp3050
F0
asS'gmax'
p3051
(lp3052
F0.0060000000000000001
assS'Kv4f'
p3053
(dp3054
S'iKv4f'
p3055
(lp3056
F0
asS'h'
(lp3057
F0
asS'm'
(lp3058
F0
asS'gmax'
p3059
(lp3060
F0.0040000000000000001
assS'HCN2'
p3061
(dp3062
S'ih'
p3063
(lp3064
F0
asS'iHCN'
p3065
(lp3066
F0
asS'm'
(lp3067
F0
asS'gmax'
p3068
(lp3069
F0.00025000000000000001
assS'KCNQ'
p3070
(dp3071
S'iKCNQ'
p3072
(lp3073
F0
asS'm'
(lp3074
F0
asS'gmax'
p3075
(lp3076
F0.00020000000000000001
assS'SK'
p3077
(dp3078
S'iSK'
p3079
(lp3080
F0
asS'm'
(lp3081
F0
asS'gmax'
p3082
(lp3083
F4.0000000000000003e-05
assS'Calcium'
p3084
(dp3085
S'tau'
p3086
(lp3087
F1
asS'depth'
p3088
(lp3089
F1600000000000
asS'cai0'
p3090
(lp3091
F5.0000000000000002e-05
assS'NaP'
p3092
(dp3093
S'h'
(lp3094
F0
asS's'
(lp3095
F0
asS'm'
(lp3096
F0
asS'iNa'
p3097
(lp3098
F0
asS'gmax'
p3099
(lp3100
F0.0001015
assS'Kv2'
p3101
(dp3102
S'm'
(lp3103
F0
asS'h'
(lp3104
F0
asS'iKv2'
p3105
(lp3106
F0
asS'gmax'
p3107
(lp3108
F0.0001
assS'Kv3'
p3109
(dp3110
S'h'
(lp3111
F0
asS'm'
(lp3112
F0
asS'iKv3'
p3113
(lp3114
F0
asS'gmax'
p3115
(lp3116
F0.001
assS'CaHVA'
p3117
(dp3118
S'iCaH'
p3119
(lp3120
F0
asS'm'
(lp3121
F0
asS'gmax'
p3122
(lp3123
F3.0000000000000001e-05
assS'NaF'
p3124
(dp3125
S'h'
(lp3126
F0
asS's'
(lp3127
F0
asS'm'
(lp3128
F0
asS'iNa'
p3129
(lp3130
F0
asS'gmax'
p3131
(lp3132
F0.035000000000000003
assS'HCN'
p3133
(dp3134
S'ih'
p3135
(lp3136
F0
asS'iHCN'
p3137
(lp3138
F0
asS'm'
(lp3139
F0
asS'gmax'
p3140
(lp3141
F0.0001
asssg205
g206
((ltRp3142
sg208
(dp3143
sg210
F174
sg211
(dp3144
g213
(lp3145
F1
asg215
F0
sg216
I8
sg217
(lp3146
(F-171.38999938964844
F-51.950000762939453
F20.979999542236328
F1
tp3147
a(F-170.92843627929688
F-52.652946472167969
F21.521137237548828
F1
tp3148
asS'L'
F1
sg222
F1
ssg223
S'__nrnsec_0x56510796bbe0'
p3149
sg225
g206
((ltRp3150
sa(dp3151
g58
(dp3152
S'na'
p3153
(dp3154
S'ena'
p3155
(lp3156
F50
aF50
aF50
aF50
aF50
aF50
aF50
asS'dina_dv_'
p3157
(lp3158
F0
aF0
aF0
aF0
aF0
aF0
aF0
asS'nai'
p3159
(lp3160
F10
aF10
aF10
aF10
aF10
aF10
aF10
asS'nao'
p3161
(lp3162
F140
aF140
aF140
aF140
aF140
aF140
aF140
asS'ina'
p3163
(lp3164
F0
aF0
aF0
aF0
aF0
aF0
aF0
asg72
F8
ssS'k'
(dp3165
S'ek'
p3166
(lp3167
F-90
aF-90
aF-90
aF-90
aF-90
aF-90
aF-90
asS'ki'
p3168
(lp3169
F54.399999999999999
aF54.399999999999999
aF54.399999999999999
aF54.399999999999999
aF54.399999999999999
aF54.399999999999999
aF54.399999999999999
asS'ko'
p3170
(lp3171
F2.5
aF2.5
aF2.5
aF2.5
aF2.5
aF2.5
aF2.5
asS'ik'
p3172
(lp3173
F0
aF0
aF0
aF0
aF0
aF0
aF0
asS'dik_dv_'
p3174
(lp3175
F0
aF0
aF0
aF0
aF0
aF0
aF0
asg72
F8
ssS'ca'
p3176
(dp3177
S'eca'
p3178
(lp3179
F132.45793416370091
aF132.45793416370091
aF132.45793416370091
aF132.45793416370091
aF132.45793416370091
aF132.45793416370091
aF132.45793416370091
asS'dica_dv_'
p3180
(lp3181
F0
aF0
aF0
aF0
aF0
aF0
aF0
asS'ica'
p3182
(lp3183
F0
aF0
aF0
aF0
aF0
aF0
aF0
asS'cai'
p3184
(lp3185
F5.0000000000000002e-05
aF5.0000000000000002e-05
aF5.0000000000000002e-05
aF5.0000000000000002e-05
aF5.0000000000000002e-05
aF5.0000000000000002e-05
aF5.0000000000000002e-05
asS'cao'
p3186
(lp3187
F2
aF2
aF2
aF2
aF2
aF2
aF2
asg72
F247
sssg96
S'GPe[0].dend[3]'
p3188
sg98
(lp3189
F2.3999999999999999
aF2.3999999999999999
aF2.3999999999999999
aF2.3999999999999999
aF2.3999999999999999
aF2.3999999999999999
aF2.3999999999999999
asg100
I7
sg101
(dp3190
S'pas'
p3191
(dp3192
S'i'
(lp3193
F0
aF0
aF0
aF0
aF0
aF0
aF0
asS'e'
(lp3194
F-60
aF-60
aF-60
aF-60
aF-60
aF-60
aF-60
asS'g'
(lp3195
F6.802721088435374e-05
aF6.802721088435374e-05
aF6.802721088435374e-05
aF6.802721088435374e-05
aF6.802721088435374e-05
aF6.802721088435374e-05
aF6.802721088435374e-05
assS'Kv4s'
p3196
(dp3197
S'm'
(lp3198
F0
aF0
aF0
aF0
aF0
aF0
aF0
asS'h'
(lp3199
F0
aF0
aF0
aF0
aF0
aF0
aF0
asS'iKv4s'
p3200
(lp3201
F0
aF0
aF0
aF0
aF0
aF0
aF0
asS'gmax'
p3202
(lp3203
F0.0060000000000000001
aF0.0060000000000000001
aF0.0060000000000000001
aF0.0060000000000000001
aF0.0060000000000000001
aF0.0060000000000000001
aF0.0060000000000000001
assS'Kv4f'
p3204
(dp3205
S'iKv4f'
p3206
(lp3207
F0
aF0
aF0
aF0
aF0
aF0
aF0
asS'h'
(lp3208
F0
aF0
aF0
aF0
aF0
aF0
aF0
asS'm'
(lp3209
F0
aF0
aF0
aF0
aF0
aF0
aF0
asS'gmax'
p3210
(lp3211
F0.0040000000000000001
aF0.0040000000000000001
aF0.0040000000000000001
aF0.0040000000000000001
aF0.0040000000000000001
aF0.0040000000000000001
aF0.0040000000000000001
assS'HCN2'
p3212
(dp3213
S'ih'
p3214
(lp3215
F0
aF0
aF0
aF0
aF0
aF0
aF0
asS'iHCN'
p3216
(lp3217
F0
aF0
aF0
aF0
aF0
aF0
aF0
asS'm'
(lp3218
F0
aF0
aF0
aF0
aF0
aF0
aF0
asS'gmax'
p3219
(lp3220
F0.00025000000000000001
aF0.00025000000000000001
aF0.00025000000000000001
aF0.00025000000000000001
aF0.00025000000000000001
aF0.00025000000000000001
aF0.00025000000000000001
assS'KCNQ'
p3221
(dp3222
S'iKCNQ'
p3223
(lp3224
F0
aF0
aF0
aF0
aF0
aF0
aF0
asS'm'
(lp3225
F0
aF0
aF0
aF0
aF0
aF0
aF0
asS'gmax'
p3226
(lp3227
F0.00020000000000000001
aF0.00020000000000000001
aF0.00020000000000000001
aF0.00020000000000000001
aF0.00020000000000000001
aF0.00020000000000000001
aF0.00020000000000000001
assS'SK'
p3228
(dp3229
S'iSK'
p3230
(lp3231
F0
aF0
aF0
aF0
aF0
aF0
aF0
asS'm'
(lp3232
F0
aF0
aF0
aF0
aF0
aF0
aF0
asS'gmax'
p3233
(lp3234
F4.0000000000000003e-05
aF4.0000000000000003e-05
aF4.0000000000000003e-05
aF4.0000000000000003e-05
aF4.0000000000000003e-05
aF4.0000000000000003e-05
aF4.0000000000000003e-05
assS'Calcium'
p3235
(dp3236
S'tau'
p3237
(lp3238
F1
aF1
aF1
aF1
aF1
aF1
aF1
asS'depth'
p3239
(lp3240
F1600000000000
aF1600000000000
aF1600000000000
aF1600000000000
aF1600000000000
aF1600000000000
aF1600000000000
asS'cai0'
p3241
(lp3242
F5.0000000000000002e-05
aF5.0000000000000002e-05
aF5.0000000000000002e-05
aF5.0000000000000002e-05
aF5.0000000000000002e-05
aF5.0000000000000002e-05
aF5.0000000000000002e-05
assS'NaP'
p3243
(dp3244
S'h'
(lp3245
F0
aF0
aF0
aF0
aF0
aF0
aF0
asS's'
(lp3246
F0
aF0
aF0
aF0
aF0
aF0
aF0
asS'm'
(lp3247
F0
aF0
aF0
aF0
aF0
aF0
aF0
asS'iNa'
p3248
(lp3249
F0
aF0
aF0
aF0
aF0
aF0
aF0
asS'gmax'
p3250
(lp3251
F0.0001015
aF0.0001015
aF0.0001015
aF0.0001015
aF0.0001015
aF0.0001015
aF0.0001015
assS'Kv2'
p3252
(dp3253
S'm'
(lp3254
F0
aF0
aF0
aF0
aF0
aF0
aF0
asS'h'
(lp3255
F0
aF0
aF0
aF0
aF0
aF0
aF0
asS'iKv2'
p3256
(lp3257
F0
aF0
aF0
aF0
aF0
aF0
aF0
asS'gmax'
p3258
(lp3259
F0.0001
aF0.0001
aF0.0001
aF0.0001
aF0.0001
aF0.0001
aF0.0001
assS'Kv3'
p3260
(dp3261
S'h'
(lp3262
F0
aF0
aF0
aF0
aF0
aF0
aF0
asS'm'
(lp3263
F0
aF0
aF0
aF0
aF0
aF0
aF0
asS'iKv3'
p3264
(lp3265
F0
aF0
aF0
aF0
aF0
aF0
aF0
asS'gmax'
p3266
(lp3267
F0.001
aF0.001
aF0.001
aF0.001
aF0.001
aF0.001
aF0.001
assS'CaHVA'
p3268
(dp3269
S'iCaH'
p3270
(lp3271
F0
aF0
aF0
aF0
aF0
aF0
aF0
asS'm'
(lp3272
F0
aF0
aF0
aF0
aF0
aF0
aF0
asS'gmax'
p3273
(lp3274
F3.0000000000000001e-05
aF3.0000000000000001e-05
aF3.0000000000000001e-05
aF4.4999999999999996e-05
aF4.4999999999999996e-05
aF4.4999999999999996e-05
aF4.4999999999999996e-05
assS'NaF'
p3275
(dp3276
S'h'
(lp3277
F0
aF0
aF0
aF0
aF0
aF0
aF0
asS's'
(lp3278
F0
aF0
aF0
aF0
aF0
aF0
aF0
asS'm'
(lp3279
F0
aF0
aF0
aF0
aF0
aF0
aF0
asS'iNa'
p3280
(lp3281
F0
aF0
aF0
aF0
aF0
aF0
aF0
asS'gmax'
p3282
(lp3283
F0.035000000000000003
aF0.035000000000000003
aF0.035000000000000003
aF0.035000000000000003
aF0.035000000000000003
aF0.035000000000000003
aF0.035000000000000003
assS'HCN'
p3284
(dp3285
S'ih'
p3286
(lp3287
F0
aF0
aF0
aF0
aF0
aF0
aF0
asS'iHCN'
p3288
(lp3289
F0
aF0
aF0
aF0
aF0
aF0
aF0
asS'm'
(lp3290
F0
aF0
aF0
aF0
aF0
aF0
aF0
asS'gmax'
p3291
(lp3292
F0.0001
aF0.0001
aF0.0001
aF0.0001
aF0.0001
aF0.0001
aF0.0001
asssg205
g206
((ltRp3293
sg208
(dp3294
sg210
F174
sg211
(dp3295
g213
(lp3296
F1
aF1
aF1
aF1
aF1
aF1
aF1
asg215
F0
sg216
I10
sg217
(lp3297
(F-70.930000305175781
F48.259998321533203
F20.639999389648438
F1
tp3298
a(F-70.977516174316406
F48.264907836914062
F20.656539916992188
F1
tp3299
a(F-71.024635314941406
F48.261650085449219
F20.655448913574219
F1
tp3300
a(F-71.071136474609375
F48.255039215087891
F20.655448913574219
F1
tp3301
a(F-71.105026245117188
F48.223308563232422
F20.648269653320312
F1
tp3302
a(F-71.145889282226562
F48.199066162109375
F20.645675659179688
F1
tp3303
a(F-71.178726196289062
F48.171188354492188
F20.648981094360352
F1
tp3304
a(F-71.22021484375
F48.149593353271484
F20.650562286376953
F1
tp3305
a(F-71.255172729492188
F48.125186920166016
F20.650562286376953
F1
tp3306
a(F-71.29266357421875
F48.105613708496094
F20.647500991821289
F1
tp3307
a(F-71.332176208496094
F48.079135894775391
F20.645540237426758
F1
tp3308
a(F-71.371139526367188
F48.051979064941406
F20.644094467163086
F1
tp3309
a(F-71.391136169433594
F48.012935638427734
F20.644863128662109
F1
tp3310
a(F-71.413337707519531
F47.973716735839844
F20.646537780761719
F1
tp3311
a(F-71.447731018066406
F47.948467254638672
F20.648708343505859
F1
tp3312
a(F-71.462875366210938
F47.907978057861328
F20.648700714111328
F1
tp3313
a(F-71.473114013671875
F47.864166259765625
F20.650562286376953
F1
tp3314
a(F-71.483551025390625
F47.818405151367188
F20.654096603393555
F1
tp3315
a(F-71.505882263183594
F47.781364440917969
F20.65875244140625
F1
tp3316
a(F-71.533584594726562
F47.744430541992188
F20.65875244140625
F1
tp3317
a(F-71.574745178222656
F47.727409362792969
F20.660268783569336
F1
tp3318
a(F-71.6060791015625
F47.698947906494141
F20.666872024536133
F1
tp3319
a(F-71.64013671875
F47.667415618896484
F20.666872024536133
F1
tp3320
asS'L'
F1
sg222
F1
ssg223
S'__nrnsec_0x56510796b820'
p3321
sg225
g206
((ltRp3322
sa(dp3323
g58
(dp3324
S'na'
p3325
(dp3326
S'ena'
p3327
(lp3328
F50
asS'dina_dv_'
p3329
(lp3330
F0
asS'nai'
p3331
(lp3332
F10
asS'nao'
p3333
(lp3334
F140
asS'ina'
p3335
(lp3336
F0
asg72
F8
ssS'k'
(dp3337
S'ek'
p3338
(lp3339
F-90
asS'ki'
p3340
(lp3341
F54.399999999999999
asS'ko'
p3342
(lp3343
F2.5
asS'ik'
p3344
(lp3345
F0
asS'dik_dv_'
p3346
(lp3347
F0
asg72
F8
ssS'ca'
p3348
(dp3349
S'eca'
p3350
(lp3351
F132.45793416370091
asS'dica_dv_'
p3352
(lp3353
F0
asS'ica'
p3354
(lp3355
F0
asS'cai'
p3356
(lp3357
F5.0000000000000002e-05
asS'cao'
p3358
(lp3359
F2
asg72
F247
sssg96
S'GPe[0].dend[2]'
p3360
sg98
(lp3361
F2.3999999999999999
asg100
I1
sg101
(dp3362
S'pas'
p3363
(dp3364
S'i'
(lp3365
F0
asS'e'
(lp3366
F-60
asS'g'
(lp3367
F6.802721088435374e-05
assS'Kv4s'
p3368
(dp3369
S'm'
(lp3370
F0
asS'h'
(lp3371
F0
asS'iKv4s'
p3372
(lp3373
F0
asS'gmax'
p3374
(lp3375
F0.0060000000000000001
assS'Kv4f'
p3376
(dp3377
S'iKv4f'
p3378
(lp3379
F0
asS'h'
(lp3380
F0
asS'm'
(lp3381
F0
asS'gmax'
p3382
(lp3383
F0.0040000000000000001
assS'HCN2'
p3384
(dp3385
S'ih'
p3386
(lp3387
F0
asS'iHCN'
p3388
(lp3389
F0
asS'm'
(lp3390
F0
asS'gmax'
p3391
(lp3392
F0.00025000000000000001
assS'KCNQ'
p3393
(dp3394
S'iKCNQ'
p3395
(lp3396
F0
asS'm'
(lp3397
F0
asS'gmax'
p3398
(lp3399
F0.00020000000000000001
assS'SK'
p3400
(dp3401
S'iSK'
p3402
(lp3403
F0
asS'm'
(lp3404
F0
asS'gmax'
p3405
(lp3406
F4.0000000000000003e-05
assS'Calcium'
p3407
(dp3408
S'tau'
p3409
(lp3410
F1
asS'depth'
p3411
(lp3412
F1600000000000
asS'cai0'
p3413
(lp3414
F5.0000000000000002e-05
assS'NaP'
p3415
(dp3416
S'h'
(lp3417
F0
asS's'
(lp3418
F0
asS'm'
(lp3419
F0
asS'iNa'
p3420
(lp3421
F0
asS'gmax'
p3422
(lp3423
F0.0001015
assS'Kv2'
p3424
(dp3425
S'm'
(lp3426
F0
asS'h'
(lp3427
F0
asS'iKv2'
p3428
(lp3429
F0
asS'gmax'
p3430
(lp3431
F0.0001
assS'Kv3'
p3432
(dp3433
S'h'
(lp3434
F0
asS'm'
(lp3435
F0
asS'iKv3'
p3436
(lp3437
F0
asS'gmax'
p3438
(lp3439
F0.001
assS'CaHVA'
p3440
(dp3441
S'iCaH'
p3442
(lp3443
F0
asS'm'
(lp3444
F0
asS'gmax'
p3445
(lp3446
F3.0000000000000001e-05
assS'NaF'
p3447
(dp3448
S'h'
(lp3449
F0
asS's'
(lp3450
F0
asS'm'
(lp3451
F0
asS'iNa'
p3452
(lp3453
F0
asS'gmax'
p3454
(lp3455
F0.035000000000000003
assS'HCN'
p3456
(dp3457
S'ih'
p3458
(lp3459
F0
asS'iHCN'
p3460
(lp3461
F0
asS'm'
(lp3462
F0
asS'gmax'
p3463
(lp3464
F0.0001
asssg205
g206
((ltRp3465
sg208
(dp3466
sg210
F174
sg211
(dp3467
g213
(lp3468
F1
asg215
F0
sg216
I10
sg217
(lp3469
(F-70.930000305175781
F48.259998321533203
F20.639999389648438
F1
tp3470
a(F-71.097663879394531
F48.483291625976562
F20.725622177124023
F1
tp3471
a(F-71.280937194824219
F48.638702392578125
F20.835567474365234
F1
tp3472
a(F-71.411430358886719
F48.689975738525391
F21.00282096862793
F1
tp3473
a(F-71.600196838378906
F48.626178741455078
F21.108272552490234
F1
tp3474
asS'L'
F1
sg222
F1
ssg223
S'__nrnsec_0x56510796b7c0'
p3475
sg225
g206
((ltRp3476
sa(dp3477
g58
(dp3478
S'na'
p3479
(dp3480
S'ena'
p3481
(lp3482
F50
asS'dina_dv_'
p3483
(lp3484
F0
asS'nai'
p3485
(lp3486
F10
asS'nao'
p3487
(lp3488
F140
asS'ina'
p3489
(lp3490
F0
asg72
F8
ssS'k'
(dp3491
S'ek'
p3492
(lp3493
F-90
asS'ki'
p3494
(lp3495
F54.399999999999999
asS'ko'
p3496
(lp3497
F2.5
asS'ik'
p3498
(lp3499
F0
asS'dik_dv_'
p3500
(lp3501
F0
asg72
F8
ssS'ca'
p3502
(dp3503
S'eca'
p3504
(lp3505
F132.45793416370091
asS'dica_dv_'
p3506
(lp3507
F0
asS'ica'
p3508
(lp3509
F0
asS'cai'
p3510
(lp3511
F5.0000000000000002e-05
asS'cao'
p3512
(lp3513
F2
asg72
F247
sssg96
S'GPe[0].dend[37]'
p3514
sg98
(lp3515
F2.3999999999999999
asg100
I1
sg101
(dp3516
S'pas'
p3517
(dp3518
S'i'
(lp3519
F0
asS'e'
(lp3520
F-60
asS'g'
(lp3521
F6.802721088435374e-05
assS'Kv4s'
p3522
(dp3523
S'm'
(lp3524
F0
asS'h'
(lp3525
F0
asS'iKv4s'
p3526
(lp3527
F0
asS'gmax'
p3528
(lp3529
F0.0060000000000000001
assS'Kv4f'
p3530
(dp3531
S'iKv4f'
p3532
(lp3533
F0
asS'h'
(lp3534
F0
asS'm'
(lp3535
F0
asS'gmax'
p3536
(lp3537
F0.0040000000000000001
assS'HCN2'
p3538
(dp3539
S'ih'
p3540
(lp3541
F0
asS'iHCN'
p3542
(lp3543
F0
asS'm'
(lp3544
F0
asS'gmax'
p3545
(lp3546
F0.00025000000000000001
assS'KCNQ'
p3547
(dp3548
S'iKCNQ'
p3549
(lp3550
F0
asS'm'
(lp3551
F0
asS'gmax'
p3552
(lp3553
F0.00020000000000000001
assS'SK'
p3554
(dp3555
S'iSK'
p3556
(lp3557
F0
asS'm'
(lp3558
F0
asS'gmax'
p3559
(lp3560
F4.0000000000000003e-05
assS'Calcium'
p3561
(dp3562
S'tau'
p3563
(lp3564
F1
asS'depth'
p3565
(lp3566
F1600000000000
asS'cai0'
p3567
(lp3568
F5.0000000000000002e-05
assS'NaP'
p3569
(dp3570
S'h'
(lp3571
F0
asS's'
(lp3572
F0
asS'm'
(lp3573
F0
asS'iNa'
p3574
(lp3575
F0
asS'gmax'
p3576
(lp3577
F0.0001015
assS'Kv2'
p3578
(dp3579
S'm'
(lp3580
F0
asS'h'
(lp3581
F0
asS'iKv2'
p3582
(lp3583
F0
asS'gmax'
p3584
(lp3585
F0.0001
assS'Kv3'
p3586
(dp3587
S'h'
(lp3588
F0
asS'm'
(lp3589
F0
asS'iKv3'
p3590
(lp3591
F0
asS'gmax'
p3592
(lp3593
F0.001
assS'CaHVA'
p3594
(dp3595
S'iCaH'
p3596
(lp3597
F0
asS'm'
(lp3598
F0
asS'gmax'
p3599
(lp3600
F8.9999999999999992e-05
assS'NaF'
p3601
(dp3602
S'h'
(lp3603
F0
asS's'
(lp3604
F0
asS'm'
(lp3605
F0
asS'iNa'
p3606
(lp3607
F0
asS'gmax'
p3608
(lp3609
F0.035000000000000003
assS'HCN'
p3610
(dp3611
S'ih'
p3612
(lp3613
F0
asS'iHCN'
p3614
(lp3615
F0
asS'm'
(lp3616
F0
asS'gmax'
p3617
(lp3618
F0.0001
asssg205
g206
((ltRp3619
sg208
(dp3620
sg210
F174
sg211
(dp3621
g213
(lp3622
F1
asg215
F0
sg216
I12
sg217
(lp3623
(F11.194000244140625
F-330.72000122070312
F-6.0380001068115234
F1
tp3624
a(F11.192398071289062
F-330.86813354492188
F-6.0470061302185059
F1
tp3625
a(F11.34127140045166
F-330.85711669921875
F-6.1191196441650391
F1
tp3626
a(F11.45598030090332
F-330.76119995117188
F-6.1478366851806641
F1
tp3627
a(F11.624981880187988
F-330.81988525390625
F-6.1576442718505859
F1
tp3628
a(F11.67860221862793
F-330.94927978515625
F-6.1916818618774414
F1
tp3629
a(F11.664755821228027
F-331.01950073242188
F-6.263089656829834
F1
tp3630
a(F11.653314590454102
F-331.12799072265625
F-6.263089656829834
F1
tp3631
asS'L'
F1
sg222
F1
ssg223
S'__nrnsec_0x56510796c4e0'
p3632
sg225
g206
((ltRp3633
sa(dp3634
g58
(dp3635
S'na'
p3636
(dp3637
S'ena'
p3638
(lp3639
F50
asS'dina_dv_'
p3640
(lp3641
F0
asS'nai'
p3642
(lp3643
F10
asS'nao'
p3644
(lp3645
F140
asS'ina'
p3646
(lp3647
F0
asg72
F8
ssS'k'
(dp3648
S'ek'
p3649
(lp3650
F-90
asS'ki'
p3651
(lp3652
F54.399999999999999
asS'ko'
p3653
(lp3654
F2.5
asS'ik'
p3655
(lp3656
F0
asS'dik_dv_'
p3657
(lp3658
F0
asg72
F8
ssS'ca'
p3659
(dp3660
S'eca'
p3661
(lp3662
F132.45793416370091
asS'dica_dv_'
p3663
(lp3664
F0
asS'ica'
p3665
(lp3666
F0
asS'cai'
p3667
(lp3668
F5.0000000000000002e-05
asS'cao'
p3669
(lp3670
F2
asg72
F247
sssg96
S'GPe[0].dend[36]'
p3671
sg98
(lp3672
F2.3999999999999999
asg100
I1
sg101
(dp3673
S'pas'
p3674
(dp3675
S'i'
(lp3676
F0
asS'e'
(lp3677
F-60
asS'g'
(lp3678
F6.802721088435374e-05
assS'Kv4s'
p3679
(dp3680
S'm'
(lp3681
F0
asS'h'
(lp3682
F0
asS'iKv4s'
p3683
(lp3684
F0
asS'gmax'
p3685
(lp3686
F0.0060000000000000001
assS'Kv4f'
p3687
(dp3688
S'iKv4f'
p3689
(lp3690
F0
asS'h'
(lp3691
F0
asS'm'
(lp3692
F0
asS'gmax'
p3693
(lp3694
F0.0040000000000000001
assS'HCN2'
p3695
(dp3696
S'ih'
p3697
(lp3698
F0
asS'iHCN'
p3699
(lp3700
F0
asS'm'
(lp3701
F0
asS'gmax'
p3702
(lp3703
F0.00025000000000000001
assS'KCNQ'
p3704
(dp3705
S'iKCNQ'
p3706
(lp3707
F0
asS'm'
(lp3708
F0
asS'gmax'
p3709
(lp3710
F0.00020000000000000001
assS'SK'
p3711
(dp3712
S'iSK'
p3713
(lp3714
F0
asS'm'
(lp3715
F0
asS'gmax'
p3716
(lp3717
F4.0000000000000003e-05
assS'Calcium'
p3718
(dp3719
S'tau'
p3720
(lp3721
F1
asS'depth'
p3722
(lp3723
F1600000000000
asS'cai0'
p3724
(lp3725
F5.0000000000000002e-05
assS'NaP'
p3726
(dp3727
S'h'
(lp3728
F0
asS's'
(lp3729
F0
asS'm'
(lp3730
F0
asS'iNa'
p3731
(lp3732
F0
asS'gmax'
p3733
(lp3734
F0.0001015
assS'Kv2'
p3735
(dp3736
S'm'
(lp3737
F0
asS'h'
(lp3738
F0
asS'iKv2'
p3739
(lp3740
F0
asS'gmax'
p3741
(lp3742
F0.0001
assS'Kv3'
p3743
(dp3744
S'h'
(lp3745
F0
asS'm'
(lp3746
F0
asS'iKv3'
p3747
(lp3748
F0
asS'gmax'
p3749
(lp3750
F0.001
assS'CaHVA'
p3751
(dp3752
S'iCaH'
p3753
(lp3754
F0
asS'm'
(lp3755
F0
asS'gmax'
p3756
(lp3757
F8.9999999999999992e-05
assS'NaF'
p3758
(dp3759
S'h'
(lp3760
F0
asS's'
(lp3761
F0
asS'm'
(lp3762
F0
asS'iNa'
p3763
(lp3764
F0
asS'gmax'
p3765
(lp3766
F0.035000000000000003
assS'HCN'
p3767
(dp3768
S'ih'
p3769
(lp3770
F0
asS'iHCN'
p3771
(lp3772
F0
asS'm'
(lp3773
F0
asS'gmax'
p3774
(lp3775
F0.0001
asssg205
g206
((ltRp3776
sg208
(dp3777
sg210
F174
sg211
(dp3778
g213
(lp3779
F1
asg215
F0
sg216
I12
sg217
(lp3780
(F11.194000244140625
F-330.72000122070312
F-6.0380001068115234
F1
tp3781
a(F11.370656967163086
F-330.869384765625
F-6.0635309219360352
F1
tp3782
a(F11.666422843933105
F-331.02801513671875
F-6.125607967376709
F1
tp3783
a(F12.091695785522461
F-331.00433349609375
F-6.125607967376709
F1
tp3784
asS'L'
F1
sg222
F1
ssg223
S'__nrnsec_0x56510796c480'
p3785
sg225
g206
((ltRp3786
sa(dp3787
g58
(dp3788
S'na'
p3789
(dp3790
S'ena'
p3791
(lp3792
F50
asS'dina_dv_'
p3793
(lp3794
F0
asS'nai'
p3795
(lp3796
F10
asS'nao'
p3797
(lp3798
F140
asS'ina'
p3799
(lp3800
F0
asg72
F8
ssS'k'
(dp3801
S'ek'
p3802
(lp3803
F-90
asS'ki'
p3804
(lp3805
F54.399999999999999
asS'ko'
p3806
(lp3807
F2.5
asS'ik'
p3808
(lp3809
F0
asS'dik_dv_'
p3810
(lp3811
F0
asg72
F8
ssS'ca'
p3812
(dp3813
S'eca'
p3814
(lp3815
F132.45793416370091
asS'dica_dv_'
p3816
(lp3817
F0
asS'ica'
p3818
(lp3819
F0
asS'cai'
p3820
(lp3821
F5.0000000000000002e-05
asS'cao'
p3822
(lp3823
F2
asg72
F247
sssg96
S'GPe[0].dend[27]'
p3824
sg98
(lp3825
F2.3999999999999999
asg100
I1
sg101
(dp3826
S'pas'
p3827
(dp3828
S'i'
(lp3829
F0
asS'e'
(lp3830
F-60
asS'g'
(lp3831
F6.802721088435374e-05
assS'Kv4s'
p3832
(dp3833
S'm'
(lp3834
F0
asS'h'
(lp3835
F0
asS'iKv4s'
p3836
(lp3837
F0
asS'gmax'
p3838
(lp3839
F0.0060000000000000001
assS'Kv4f'
p3840
(dp3841
S'iKv4f'
p3842
(lp3843
F0
asS'h'
(lp3844
F0
asS'm'
(lp3845
F0
asS'gmax'
p3846
(lp3847
F0.0040000000000000001
assS'HCN2'
p3848
(dp3849
S'ih'
p3850
(lp3851
F0
asS'iHCN'
p3852
(lp3853
F0
asS'm'
(lp3854
F0
asS'gmax'
p3855
(lp3856
F0.00025000000000000001
assS'KCNQ'
p3857
(dp3858
S'iKCNQ'
p3859
(lp3860
F0
asS'm'
(lp3861
F0
asS'gmax'
p3862
(lp3863
F0.00020000000000000001
assS'SK'
p3864
(dp3865
S'iSK'
p3866
(lp3867
F0
asS'm'
(lp3868
F0
asS'gmax'
p3869
(lp3870
F4.0000000000000003e-05
assS'Calcium'
p3871
(dp3872
S'tau'
p3873
(lp3874
F1
asS'depth'
p3875
(lp3876
F1600000000000
asS'cai0'
p3877
(lp3878
F5.0000000000000002e-05
assS'NaP'
p3879
(dp3880
S'h'
(lp3881
F0
asS's'
(lp3882
F0
asS'm'
(lp3883
F0
asS'iNa'
p3884
(lp3885
F0
asS'gmax'
p3886
(lp3887
F0.0001015
assS'Kv2'
p3888
(dp3889
S'm'
(lp3890
F0
asS'h'
(lp3891
F0
asS'iKv2'
p3892
(lp3893
F0
asS'gmax'
p3894
(lp3895
F0.0001
assS'Kv3'
p3896
(dp3897
S'h'
(lp3898
F0
asS'm'
(lp3899
F0
asS'iKv3'
p3900
(lp3901
F0
asS'gmax'
p3902
(lp3903
F0.001
assS'CaHVA'
p3904
(dp3905
S'iCaH'
p3906
(lp3907
F0
asS'm'
(lp3908
F0
asS'gmax'
p3909
(lp3910
F8.9999999999999992e-05
assS'NaF'
p3911
(dp3912
S'h'
(lp3913
F0
asS's'
(lp3914
F0
asS'm'
(lp3915
F0
asS'iNa'
p3916
(lp3917
F0
asS'gmax'
p3918
(lp3919
F0.035000000000000003
assS'HCN'
p3920
(dp3921
S'ih'
p3922
(lp3923
F0
asS'iHCN'
p3924
(lp3925
F0
asS'm'
(lp3926
F0
asS'gmax'
p3927
(lp3928
F0.0001
asssg205
g206
((ltRp3929
sg208
(dp3930
sg210
F174
sg211
(dp3931
g213
(lp3932
F1
asg215
F0
sg216
I13
sg217
(lp3933
(F-90.885002136230469
F-106.79199981689453
F27.952999114990234
F1
tp3934
a(F-91.337554931640625
F-107.60503387451172
F28.31928825378418
F1
tp3935
asS'L'
F1
sg222
F1
ssg223
S'__nrnsec_0x56510796c120'
p3936
sg225
g206
((ltRp3937
sa(dp3938
g58
(dp3939
S'na'
p3940
(dp3941
S'ena'
p3942
(lp3943
F50
aF50
aF50
aF50
aF50
aF50
aF50
aF50
aF50
aF50
aF50
aF50
aF50
aF50
aF50
aF50
aF50
aF50
aF50
asS'dina_dv_'
p3944
(lp3945
F0
aF0
aF0
aF0
aF0
aF0
aF0
aF0
aF0
aF0
aF0
aF0
aF0
aF0
aF0
aF0
aF0
aF0
aF0
asS'nai'
p3946
(lp3947
F10
aF10
aF10
aF10
aF10
aF10
aF10
aF10
aF10
aF10
aF10
aF10
aF10
aF10
aF10
aF10
aF10
aF10
aF10
asS'nao'
p3948
(lp3949
F140
aF140
aF140
aF140
aF140
aF140
aF140
aF140
aF140
aF140
aF140
aF140
aF140
aF140
aF140
aF140
aF140
aF140
aF140
asS'ina'
p3950
(lp3951
F0
aF0
aF0
aF0
aF0
aF0
aF0
aF0
aF0
aF0
aF0
aF0
aF0
aF0
aF0
aF0
aF0
aF0
aF0
asg72
F8
ssS'k'
(dp3952
S'ek'
p3953
(lp3954
F-90
aF-90
aF-90
aF-90
aF-90
aF-90
aF-90
aF-90
aF-90
aF-90
aF-90
aF-90
aF-90
aF-90
aF-90
aF-90
aF-90
aF-90
aF-90
asS'ki'
p3955
(lp3956
F54.399999999999999
aF54.399999999999999
aF54.399999999999999
aF54.399999999999999
aF54.399999999999999
aF54.399999999999999
aF54.399999999999999
aF54.399999999999999
aF54.399999999999999
aF54.399999999999999
aF54.399999999999999
aF54.399999999999999
aF54.399999999999999
aF54.399999999999999
aF54.399999999999999
aF54.399999999999999
aF54.399999999999999
aF54.399999999999999
aF54.399999999999999
asS'ko'
p3957
(lp3958
F2.5
aF2.5
aF2.5
aF2.5
aF2.5
aF2.5
aF2.5
aF2.5
aF2.5
aF2.5
aF2.5
aF2.5
aF2.5
aF2.5
aF2.5
aF2.5
aF2.5
aF2.5
aF2.5
asS'ik'
p3959
(lp3960
F0
aF0
aF0
aF0
aF0
aF0
aF0
aF0
aF0
aF0
aF0
aF0
aF0
aF0
aF0
aF0
aF0
aF0
aF0
asS'dik_dv_'
p3961
(lp3962
F0
aF0
aF0
aF0
aF0
aF0
aF0
aF0
aF0
aF0
aF0
aF0
aF0
aF0
aF0
aF0
aF0
aF0
aF0
asg72
F8
ssS'ca'
p3963
(dp3964
S'eca'
p3965
(lp3966
F132.45793416370091
aF132.45793416370091
aF132.45793416370091
aF132.45793416370091
aF132.45793416370091
aF132.45793416370091
aF132.45793416370091
aF132.45793416370091
aF132.45793416370091
aF132.45793416370091
aF132.45793416370091
aF132.45793416370091
aF132.45793416370091
aF132.45793416370091
aF132.45793416370091
aF132.45793416370091
aF132.45793416370091
aF132.45793416370091
aF132.45793416370091
asS'dica_dv_'
p3967
(lp3968
F0
aF0
aF0
aF0
aF0
aF0
aF0
aF0
aF0
aF0
aF0
aF0
aF0
aF0
aF0
aF0
aF0
aF0
aF0
asS'ica'
p3969
(lp3970
F0
aF0
aF0
aF0
aF0
aF0
aF0
aF0
aF0
aF0
aF0
aF0
aF0
aF0
aF0
aF0
aF0
aF0
aF0
asS'cai'
p3971
(lp3972
F5.0000000000000002e-05
aF5.0000000000000002e-05
aF5.0000000000000002e-05
aF5.0000000000000002e-05
aF5.0000000000000002e-05
aF5.0000000000000002e-05
aF5.0000000000000002e-05
aF5.0000000000000002e-05
aF5.0000000000000002e-05
aF5.0000000000000002e-05
aF5.0000000000000002e-05
aF5.0000000000000002e-05
aF5.0000000000000002e-05
aF5.0000000000000002e-05
aF5.0000000000000002e-05
aF5.0000000000000002e-05
aF5.0000000000000002e-05
aF5.0000000000000002e-05
aF5.0000000000000002e-05
asS'cao'
p3973
(lp3974
F2
aF2
aF2
aF2
aF2
aF2
aF2
aF2
aF2
aF2
aF2
aF2
aF2
aF2
aF2
aF2
aF2
aF2
aF2
asg72
F247
sssg96
S'GPe[0].dend[26]'
p3975
sg98
(lp3976
F2.3999999999999999
aF2.3999999999999999
aF2.3999999999999999
aF2.3999999999999999
aF2.3999999999999999
aF2.3999999999999999
aF2.3999999999999999
aF2.3999999999999999
aF2.3999999999999999
aF2.3999999999999999
aF2.3999999999999999
aF2.3999999999999999
aF2.3999999999999999
aF2.3999999999999999
aF2.3999999999999999
aF2.3999999999999999
aF2.3999999999999999
aF2.3999999999999999
aF2.3999999999999999
asg100
I19
sg101
(dp3977
S'pas'
p3978
(dp3979
S'i'
(lp3980
F0
aF0
aF0
aF0
aF0
aF0
aF0
aF0
aF0
aF0
aF0
aF0
aF0
aF0
aF0
aF0
aF0
aF0
aF0
asS'e'
(lp3981
F-60
aF-60
aF-60
aF-60
aF-60
aF-60
aF-60
aF-60
aF-60
aF-60
aF-60
aF-60
aF-60
aF-60
aF-60
aF-60
aF-60
aF-60
aF-60
asS'g'
(lp3982
F6.802721088435374e-05
aF6.802721088435374e-05
aF6.802721088435374e-05
aF6.802721088435374e-05
aF6.802721088435374e-05
aF6.802721088435374e-05
aF6.802721088435374e-05
aF6.802721088435374e-05
aF6.802721088435374e-05
aF6.802721088435374e-05
aF6.802721088435374e-05
aF6.802721088435374e-05
aF6.802721088435374e-05
aF6.802721088435374e-05
aF6.802721088435374e-05
aF6.802721088435374e-05
aF6.802721088435374e-05
aF6.802721088435374e-05
aF6.802721088435374e-05
assS'Kv4s'
p3983
(dp3984
S'm'
(lp3985
F0
aF0
aF0
aF0
aF0
aF0
aF0
aF0
aF0
aF0
aF0
aF0
aF0
aF0
aF0
aF0
aF0
aF0
aF0
asS'h'
(lp3986
F0
aF0
aF0
aF0
aF0
aF0
aF0
aF0
aF0
aF0
aF0
aF0
aF0
aF0
aF0
aF0
aF0
aF0
aF0
asS'iKv4s'
p3987
(lp3988
F0
aF0
aF0
aF0
aF0
aF0
aF0
aF0
aF0
aF0
aF0
aF0
aF0
aF0
aF0
aF0
aF0
aF0
aF0
asS'gmax'
p3989
(lp3990
F0.0060000000000000001
aF0.0060000000000000001
aF0.0060000000000000001
aF0.0060000000000000001
aF0.0060000000000000001
aF0.0060000000000000001
aF0.0060000000000000001
aF0.0060000000000000001
aF0.0060000000000000001
aF0.0060000000000000001
aF0.0060000000000000001
aF0.0060000000000000001
aF0.0060000000000000001
aF0.0060000000000000001
aF0.0060000000000000001
aF0.0060000000000000001
aF0.0060000000000000001
aF0.0060000000000000001
aF0.0060000000000000001
assS'Kv4f'
p3991
(dp3992
S'iKv4f'
p3993
(lp3994
F0
aF0
aF0
aF0
aF0
aF0
aF0
aF0
aF0
aF0
aF0
aF0
aF0
aF0
aF0
aF0
aF0
aF0
aF0
asS'h'
(lp3995
F0
aF0
aF0
aF0
aF0
aF0
aF0
aF0
aF0
aF0
aF0
aF0
aF0
aF0
aF0
aF0
aF0
aF0
aF0
asS'm'
(lp3996
F0
aF0
aF0
aF0
aF0
aF0
aF0
aF0
aF0
aF0
aF0
aF0
aF0
aF0
aF0
aF0
aF0
aF0
aF0
asS'gmax'
p3997
(lp3998
F0.0040000000000000001
aF0.0040000000000000001
aF0.0040000000000000001
aF0.0040000000000000001
aF0.0040000000000000001
aF0.0040000000000000001
aF0.0040000000000000001
aF0.0040000000000000001
aF0.0040000000000000001
aF0.0040000000000000001
aF0.0040000000000000001
aF0.0040000000000000001
aF0.0040000000000000001
aF0.0040000000000000001
aF0.0040000000000000001
aF0.0040000000000000001
aF0.0040000000000000001
aF0.0040000000000000001
aF0.0040000000000000001
assS'HCN2'
p3999
(dp4000
S'ih'
p4001
(lp4002
F0
aF0
aF0
aF0
aF0
aF0
aF0
aF0
aF0
aF0
aF0
aF0
aF0
aF0
aF0
aF0
aF0
aF0
aF0
asS'iHCN'
p4003
(lp4004
F0
aF0
aF0
aF0
aF0
aF0
aF0
aF0
aF0
aF0
aF0
aF0
aF0
aF0
aF0
aF0
aF0
aF0
aF0
asS'm'
(lp4005
F0
aF0
aF0
aF0
aF0
aF0
aF0
aF0
aF0
aF0
aF0
aF0
aF0
aF0
aF0
aF0
aF0
aF0
aF0
asS'gmax'
p4006
(lp4007
F0.00025000000000000001
aF0.00025000000000000001
aF0.00025000000000000001
aF0.00025000000000000001
aF0.00025000000000000001
aF0.00025000000000000001
aF0.00025000000000000001
aF0.00025000000000000001
aF0.00025000000000000001
aF0.00025000000000000001
aF0.00025000000000000001
aF0.00025000000000000001
aF0.00025000000000000001
aF0.00025000000000000001
aF0.00025000000000000001
aF0.00025000000000000001
aF0.00025000000000000001
aF0.00025000000000000001
aF0.00025000000000000001
assS'KCNQ'
p4008
(dp4009
S'iKCNQ'
p4010
(lp4011
F0
aF0
aF0
aF0
aF0
aF0
aF0
aF0
aF0
aF0
aF0
aF0
aF0
aF0
aF0
aF0
aF0
aF0
aF0
asS'm'
(lp4012
F0
aF0
aF0
aF0
aF0
aF0
aF0
aF0
aF0
aF0
aF0
aF0
aF0
aF0
aF0
aF0
aF0
aF0
aF0
asS'gmax'
p4013
(lp4014
F0.00020000000000000001
aF0.00020000000000000001
aF0.00020000000000000001
aF0.00020000000000000001
aF0.00020000000000000001
aF0.00020000000000000001
aF0.00020000000000000001
aF0.00020000000000000001
aF0.00020000000000000001
aF0.00020000000000000001
aF0.00020000000000000001
aF0.00020000000000000001
aF0.00020000000000000001
aF0.00020000000000000001
aF0.00020000000000000001
aF0.00020000000000000001
aF0.00020000000000000001
aF0.00020000000000000001
aF0.00020000000000000001
assS'SK'
p4015
(dp4016
S'iSK'
p4017
(lp4018
F0
aF0
aF0
aF0
aF0
aF0
aF0
aF0
aF0
aF0
aF0
aF0
aF0
aF0
aF0
aF0
aF0
aF0
aF0
asS'm'
(lp4019
F0
aF0
aF0
aF0
aF0
aF0
aF0
aF0
aF0
aF0
aF0
aF0
aF0
aF0
aF0
aF0
aF0
aF0
aF0
asS'gmax'
p4020
(lp4021
F4.0000000000000003e-05
aF4.0000000000000003e-05
aF4.0000000000000003e-05
aF4.0000000000000003e-05
aF4.0000000000000003e-05
aF4.0000000000000003e-05
aF4.0000000000000003e-05
aF4.0000000000000003e-05
aF4.0000000000000003e-05
aF4.0000000000000003e-05
aF4.0000000000000003e-05
aF4.0000000000000003e-05
aF4.0000000000000003e-05
aF4.0000000000000003e-05
aF4.0000000000000003e-05
aF4.0000000000000003e-05
aF4.0000000000000003e-05
aF4.0000000000000003e-05
aF4.0000000000000003e-05
assS'Calcium'
p4022
(dp4023
S'tau'
p4024
(lp4025
F1
aF1
aF1
aF1
aF1
aF1
aF1
aF1
aF1
aF1
aF1
aF1
aF1
aF1
aF1
aF1
aF1
aF1
aF1
asS'depth'
p4026
(lp4027
F1600000000000
aF1600000000000
aF1600000000000
aF1600000000000
aF1600000000000
aF1600000000000
aF1600000000000
aF1600000000000
aF1600000000000
aF1600000000000
aF1600000000000
aF1600000000000
aF1600000000000
aF1600000000000
aF1600000000000
aF1600000000000
aF1600000000000
aF1600000000000
aF1600000000000
asS'cai0'
p4028
(lp4029
F5.0000000000000002e-05
aF5.0000000000000002e-05
aF5.0000000000000002e-05
aF5.0000000000000002e-05
aF5.0000000000000002e-05
aF5.0000000000000002e-05
aF5.0000000000000002e-05
aF5.0000000000000002e-05
aF5.0000000000000002e-05
aF5.0000000000000002e-05
aF5.0000000000000002e-05
aF5.0000000000000002e-05
aF5.0000000000000002e-05
aF5.0000000000000002e-05
aF5.0000000000000002e-05
aF5.0000000000000002e-05
aF5.0000000000000002e-05
aF5.0000000000000002e-05
aF5.0000000000000002e-05
assS'NaP'
p4030
(dp4031
S'h'
(lp4032
F0
aF0
aF0
aF0
aF0
aF0
aF0
aF0
aF0
aF0
aF0
aF0
aF0
aF0
aF0
aF0
aF0
aF0
aF0
asS's'
(lp4033
F0
aF0
aF0
aF0
aF0
aF0
aF0
aF0
aF0
aF0
aF0
aF0
aF0
aF0
aF0
aF0
aF0
aF0
aF0
asS'm'
(lp4034
F0
aF0
aF0
aF0
aF0
aF0
aF0
aF0
aF0
aF0
aF0
aF0
aF0
aF0
aF0
aF0
aF0
aF0
aF0
asS'iNa'
p4035
(lp4036
F0
aF0
aF0
aF0
aF0
aF0
aF0
aF0
aF0
aF0
aF0
aF0
aF0
aF0
aF0
aF0
aF0
aF0
aF0
asS'gmax'
p4037
(lp4038
F0.0001015
aF0.0001015
aF0.0001015
aF0.0001015
aF0.0001015
aF0.0001015
aF0.0001015
aF0.0001015
aF0.0001015
aF0.0001015
aF0.0001015
aF0.0001015
aF0.0001015
aF0.0001015
aF0.0001015
aF0.0001015
aF0.0001015
aF0.0001015
aF0.0001015
assS'Kv2'
p4039
(dp4040
S'm'
(lp4041
F0
aF0
aF0
aF0
aF0
aF0
aF0
aF0
aF0
aF0
aF0
aF0
aF0
aF0
aF0
aF0
aF0
aF0
aF0
asS'h'
(lp4042
F0
aF0
aF0
aF0
aF0
aF0
aF0
aF0
aF0
aF0
aF0
aF0
aF0
aF0
aF0
aF0
aF0
aF0
aF0
asS'iKv2'
p4043
(lp4044
F0
aF0
aF0
aF0
aF0
aF0
aF0
aF0
aF0
aF0
aF0
aF0
aF0
aF0
aF0
aF0
aF0
aF0
aF0
asS'gmax'
p4045
(lp4046
F0.0001
aF0.0001
aF0.0001
aF0.0001
aF0.0001
aF0.0001
aF0.0001
aF0.0001
aF0.0001
aF0.0001
aF0.0001
aF0.0001
aF0.0001
aF0.0001
aF0.0001
aF0.0001
aF0.0001
aF0.0001
aF0.0001
assS'Kv3'
p4047
(dp4048
S'h'
(lp4049
F0
aF0
aF0
aF0
aF0
aF0
aF0
aF0
aF0
aF0
aF0
aF0
aF0
aF0
aF0
aF0
aF0
aF0
aF0
asS'm'
(lp4050
F0
aF0
aF0
aF0
aF0
aF0
aF0
aF0
aF0
aF0
aF0
aF0
aF0
aF0
aF0
aF0
aF0
aF0
aF0
asS'iKv3'
p4051
(lp4052
F0
aF0
aF0
aF0
aF0
aF0
aF0
aF0
aF0
aF0
aF0
aF0
aF0
aF0
aF0
aF0
aF0
aF0
aF0
asS'gmax'
p4053
(lp4054
F0.001
aF0.001
aF0.001
aF0.001
aF0.001
aF0.001
aF0.001
aF0.001
aF0.001
aF0.001
aF0.001
aF0.001
aF0.001
aF0.001
aF0.001
aF0.001
aF0.001
aF0.001
aF0.001
assS'CaHVA'
p4055
(dp4056
S'iCaH'
p4057
(lp4058
F0
aF0
aF0
aF0
aF0
aF0
aF0
aF0
aF0
aF0
aF0
aF0
aF0
aF0
aF0
aF0
aF0
aF0
aF0
asS'm'
(lp4059
F0
aF0
aF0
aF0
aF0
aF0
aF0
aF0
aF0
aF0
aF0
aF0
aF0
aF0
aF0
aF0
aF0
aF0
aF0
asS'gmax'
p4060
(lp4061
F8.9999999999999992e-05
aF8.9999999999999992e-05
aF8.9999999999999992e-05
aF8.9999999999999992e-05
aF8.9999999999999992e-05
aF8.9999999999999992e-05
aF8.9999999999999992e-05
aF8.9999999999999992e-05
aF8.9999999999999992e-05
aF8.9999999999999992e-05
aF8.9999999999999992e-05
aF8.9999999999999992e-05
aF8.9999999999999992e-05
aF8.9999999999999992e-05
aF8.9999999999999992e-05
aF8.9999999999999992e-05
aF8.9999999999999992e-05
aF8.9999999999999992e-05
aF8.9999999999999992e-05
assS'NaF'
p4062
(dp4063
S'h'
(lp4064
F0
aF0
aF0
aF0
aF0
aF0
aF0
aF0
aF0
aF0
aF0
aF0
aF0
aF0
aF0
aF0
aF0
aF0
aF0
asS's'
(lp4065
F0
aF0
aF0
aF0
aF0
aF0
aF0
aF0
aF0
aF0
aF0
aF0
aF0
aF0
aF0
aF0
aF0
aF0
aF0
asS'm'
(lp4066
F0
aF0
aF0
aF0
aF0
aF0
aF0
aF0
aF0
aF0
aF0
aF0
aF0
aF0
aF0
aF0
aF0
aF0
aF0
asS'iNa'
p4067
(lp4068
F0
aF0
aF0
aF0
aF0
aF0
aF0
aF0
aF0
aF0
aF0
aF0
aF0
aF0
aF0
aF0
aF0
aF0
aF0
asS'gmax'
p4069
(lp4070
F0.035000000000000003
aF0.035000000000000003
aF0.035000000000000003
aF0.035000000000000003
aF0.035000000000000003
aF0.035000000000000003
aF0.035000000000000003
aF0.035000000000000003
aF0.035000000000000003
aF0.035000000000000003
aF0.035000000000000003
aF0.035000000000000003
aF0.035000000000000003
aF0.035000000000000003
aF0.035000000000000003
aF0.035000000000000003
aF0.035000000000000003
aF0.035000000000000003
aF0.035000000000000003
assS'HCN'
p4071
(dp4072
S'ih'
p4073
(lp4074
F0
aF0
aF0
aF0
aF0
aF0
aF0
aF0
aF0
aF0
aF0
aF0
aF0
aF0
aF0
aF0
aF0
aF0
aF0
asS'iHCN'
p4075
(lp4076
F0
aF0
aF0
aF0
aF0
aF0
aF0
aF0
aF0
aF0
aF0
aF0
aF0
aF0
aF0
aF0
aF0
aF0
aF0
asS'm'
(lp4077
F0
aF0
aF0
aF0
aF0
aF0
aF0
aF0
aF0
aF0
aF0
aF0
aF0
aF0
aF0
aF0
aF0
aF0
aF0
asS'gmax'
p4078
(lp4079
F0.0001
aF0.0001
aF0.0001
aF0.0001
aF0.0001
aF0.0001
aF0.0001
aF0.0001
aF0.0001
aF0.0001
aF0.0001
aF0.0001
aF0.0001
aF0.0001
aF0.0001
aF0.0001
aF0.0001
aF0.0001
aF0.0001
asssg205
g206
((ltRp4080
sg208
(dp4081
sg210
F174
sg211
(dp4082
g213
(lp4083
F1
aF1
aF1
aF1
aF1
aF1
aF1
aF1
aF1
aF1
aF1
aF1
aF1
aF1
aF1
aF1
aF1
aF1
aF1
asg215
F0
sg216
I13
sg217
(lp4084
(F-90.885002136230469
F-106.79199981689453
F27.952999114990234
F1
tp4085
a(F-90.893539428710938
F-106.80702209472656
F27.963739395141602
F1
tp4086
a(F-90.891151428222656
F-106.82284545898438
F27.963739395141602
F1
tp4087
a(F-90.888046264648438
F-106.83767700195312
F27.963739395141602
F1
tp4088
a(F-90.896018981933594
F-106.84675598144531
F27.970806121826172
F1
tp4089
a(F-90.893569946289062
F-106.86155700683594
F27.972593307495117
F1
tp4090
a(F-90.892669677734375
F-106.87630462646484
F27.972593307495117
F1
tp4091
a(F-90.893730163574219
F-106.88819885253906
F27.973903656005859
F1
tp4092
a(F-90.890342712402344
F-106.90007019042969
F27.979654312133789
F1
tp4093
a(F-90.891632080078125
F-106.91487121582031
F27.979940414428711
F1
tp4094
a(F-90.892547607421875
F-106.92826080322266
F27.979940414428711
F1
tp4095
a(F-90.887664794921875
F-106.94026184082031
F27.980720520019531
F1
tp4096
a(F-90.886856079101562
F-106.95468902587891
F27.981420516967773
F1
tp4097
a(F-90.88055419921875
F-106.96826934814453
F27.981420516967773
F1
tp4098
a(F-90.876319885253906
F-106.98235321044922
F27.981636047363281
F1
tp4099
a(F-90.872016906738281
F-106.99640655517578
F27.982587814331055
F1
tp4100
a(F-90.879737854003906
F-107.00944519042969
F27.982595443725586
F1
tp4101
a(F-90.886032104492188
F-107.02275085449219
F27.986211776733398
F1
tp4102
a(F-90.891830444335938
F-107.03632354736328
F27.987827301025391
F1
tp4103
a(F-90.898277282714844
F-107.04970550537109
F27.98988151550293
F1
tp4104
a(F-90.906692504882812
F-107.06200408935547
F27.991588592529297
F1
tp4105
a(F-90.916732788085938
F-107.07298278808594
F27.994462966918945
F1
tp4106
a(F-90.926277160644531
F-107.08415985107422
F27.996425628662109
F1
tp4107
a(F-90.932281494140625
F-107.09747314453125
F27.999448776245117
F1
tp4108
a(F-90.934806823730469
F-107.11203002929688
F28.001298904418945
F1
tp4109
a(F-90.934844970703125
F-107.12677764892578
F28.001562118530273
F1
tp4110
a(F-90.935356140136719
F-107.14145660400391
F28.003871917724609
F1
tp4111
a(F-90.936492919921875
F-107.15627288818359
F28.005424499511719
F1
tp4112
a(F-90.936737060546875
F-107.17135620117188
F28.005882263183594
F1
tp4113
a(F-90.938285827636719
F-107.18633270263672
F28.00758171081543
F1
tp4114
a(F-90.942031860351562
F-107.20096588134766
F28.007902145385742
F1
tp4115
a(F-90.942390441894531
F-107.21593475341797
F28.007902145385742
F1
tp4116
a(F-90.941154479980469
F-107.23082733154297
F28.006137847900391
F1
tp4117
a(F-90.939842224121094
F-107.2454833984375
F28.003280639648438
F1
tp4118
a(F-90.940353393554688
F-107.26008605957031
F28.007301330566406
F1
tp4119
a(F-90.943122863769531
F-107.27384185791016
F28.012790679931641
F1
tp4120
a(F-90.941909790039062
F-107.28775024414062
F28.014236450195312
F1
tp4121
a(F-90.941818237304688
F-107.30088806152344
F28.01439094543457
F1
tp4122
a(F-90.943008422851562
F-107.31314849853516
F28.01439094543457
F1
tp4123
a(F-90.940086364746094
F-107.32349395751953
F28.014541625976562
F1
tp4124
a(F-90.941062927246094
F-107.33281707763672
F28.011117935180664
F1
tp4125
a(F-90.944633483886719
F-107.34471893310547
F28.010965347290039
F1
tp4126
a(F-90.948249816894531
F-107.35601043701172
F28.010860443115234
F1
tp4127
a(F-90.95184326171875
F-107.36609649658203
F28.010860443115234
F1
tp4128
a(F-90.95452880859375
F-107.37647247314453
F28.010860443115234
F1
tp4129
a(F-90.958450317382812
F-107.38625335693359
F28.008991241455078
F1
tp4130
a(F-90.961135864257812
F-107.39656066894531
F28.007846832275391
F1
tp4131
a(F-90.963813781738281
F-107.40687561035156
F28.006702423095703
F1
tp4132
a(F-90.963821411132812
F-107.41706848144531
F28.004842758178711
F1
tp4133
a(F-90.963401794433594
F-107.42735290527344
F28.003488540649414
F1
tp4134
a(F-90.965568542480469
F-107.43784332275391
F28.003488540649414
F1
tp4135
a(F-90.968238830566406
F-107.44822692871094
F28.003488540649414
F1
tp4136
a(F-90.9676513671875
F-107.45804595947266
F28.005035400390625
F1
tp4137
a(F-90.968574523925781
F-107.46820068359375
F28.003808975219727
F1
tp4138
a(F-90.971046447753906
F-107.47847747802734
F28.002368927001953
F1
tp4139
a(F-90.974281311035156
F-107.48867797851562
F28.001810073852539
F1
tp4140
a(F-90.977592468261719
F-107.49884796142578
F28.001041412353516
F1
tp4141
a(F-90.980918884277344
F-107.50899505615234
F28.000232696533203
F1
tp4142
a(F-90.987800598144531
F-107.51657104492188
F27.999956130981445
F1
tp4143
a(F-90.995841979980469
F-107.52345275878906
F27.999956130981445
F1
tp4144
a(F-91.00250244140625
F-107.5316162109375
F27.999956130981445
F1
tp4145
a(F-91.008995056152344
F-107.53995513916016
F27.999603271484375
F1
tp4146
a(F-91.016250610351562
F-107.54784393310547
F27.999359130859375
F1
tp4147
a(F-91.023513793945312
F-107.55571746826172
F27.999359130859375
F1
tp4148
a(F-91.030776977539062
F-107.5635986328125
F27.999359130859375
F1
tp4149
a(F-91.038032531738281
F-107.57147979736328
F27.999359130859375
F1
tp4150
a(F-91.047576904296875
F-107.5762939453125
F27.999359130859375
F1
tp4151
a(F-91.056655883789062
F-107.58192443847656
F27.999359130859375
F1
tp4152
a(F-91.065093994140625
F-107.58828735351562
F27.999359130859375
F1
tp4153
a(F-91.072921752929688
F-107.59560394287109
F27.999359130859375
F1
tp4154
a(F-91.080360412597656
F-107.60325622558594
F27.999359130859375
F1
tp4155
a(F-91.086502075195312
F-107.61203765869141
F27.999359130859375
F1
tp4156
a(F-91.090194702148438
F-107.61943817138672
F28.002374649047852
F1
tp4157
a(F-91.093620300292969
F-107.62668609619141
F28.005718231201172
F1
tp4158
a(F-91.097503662109375
F-107.63442993164062
F28.005849838256836
F1
tp4159
a(F-91.103858947753906
F-107.64024353027344
F28.005849838256836
F1
tp4160
a(F-91.11053466796875
F-107.64579772949219
F28.005849838256836
F1
tp4161
a(F-91.115043640136719
F-107.65164947509766
F28.00901985168457
F1
tp4162
a(F-91.11798095703125
F-107.65771484375
F28.014474868774414
F1
tp4163
a(F-91.120742797851562
F-107.66545867919922
F28.01728630065918
F1
tp4164
a(F-91.123504638671875
F-107.67320251464844
F28.020097732543945
F1
tp4165
a(F-91.127250671386719
F-107.67991638183594
F28.024984359741211
F1
tp4166
asS'L'
F0.99999999999999989
sg222
F1
ssg223
S'__nrnsec_0x56510796c0c0'
p4167
sg225
g206
((ltRp4168
sa(dp4169
g58
(dp4170
S'na'
p4171
(dp4172
S'ena'
p4173
(lp4174
F50
asS'dina_dv_'
p4175
(lp4176
F0
asS'nai'
p4177
(lp4178
F10
asS'nao'
p4179
(lp4180
F140
asS'ina'
p4181
(lp4182
F0
asg72
F8
ssS'k'
(dp4183
S'ek'
p4184
(lp4185
F-90
asS'ki'
p4186
(lp4187
F54.399999999999999
asS'ko'
p4188
(lp4189
F2.5
asS'ik'
p4190
(lp4191
F0
asS'dik_dv_'
p4192
(lp4193
F0
asg72
F8
ssS'ca'
p4194
(dp4195
S'eca'
p4196
(lp4197
F132.45793416370091
asS'dica_dv_'
p4198
(lp4199
F0
asS'ica'
p4200
(lp4201
F0
asS'cai'
p4202
(lp4203
F5.0000000000000002e-05
asS'cao'
p4204
(lp4205
F2
asg72
F247
sssg96
S'GPe[0].dend[20]'
p4206
sg98
(lp4207
F2.3999999999999999
asg100
I1
sg101
(dp4208
S'pas'
p4209
(dp4210
S'i'
(lp4211
F0
asS'e'
(lp4212
F-60
asS'g'
(lp4213
F6.802721088435374e-05
assS'Kv4s'
p4214
(dp4215
S'm'
(lp4216
F0
asS'h'
(lp4217
F0
asS'iKv4s'
p4218
(lp4219
F0
asS'gmax'
p4220
(lp4221
F0.0060000000000000001
assS'Kv4f'
p4222
(dp4223
S'iKv4f'
p4224
(lp4225
F0
asS'h'
(lp4226
F0
asS'm'
(lp4227
F0
asS'gmax'
p4228
(lp4229
F0.0040000000000000001
assS'HCN2'
p4230
(dp4231
S'ih'
p4232
(lp4233
F0
asS'iHCN'
p4234
(lp4235
F0
asS'm'
(lp4236
F0
asS'gmax'
p4237
(lp4238
F0.00025000000000000001
assS'KCNQ'
p4239
(dp4240
S'iKCNQ'
p4241
(lp4242
F0
asS'm'
(lp4243
F0
asS'gmax'
p4244
(lp4245
F0.00020000000000000001
assS'SK'
p4246
(dp4247
S'iSK'
p4248
(lp4249
F0
asS'm'
(lp4250
F0
asS'gmax'
p4251
(lp4252
F4.0000000000000003e-05
assS'Calcium'
p4253
(dp4254
S'tau'
p4255
(lp4256
F1
asS'depth'
p4257
(lp4258
F1600000000000
asS'cai0'
p4259
(lp4260
F5.0000000000000002e-05
assS'NaP'
p4261
(dp4262
S'h'
(lp4263
F0
asS's'
(lp4264
F0
asS'm'
(lp4265
F0
asS'iNa'
p4266
(lp4267
F0
asS'gmax'
p4268
(lp4269
F0.0001015
assS'Kv2'
p4270
(dp4271
S'm'
(lp4272
F0
asS'h'
(lp4273
F0
asS'iKv2'
p4274
(lp4275
F0
asS'gmax'
p4276
(lp4277
F0.0001
assS'Kv3'
p4278
(dp4279
S'h'
(lp4280
F0
asS'm'
(lp4281
F0
asS'iKv3'
p4282
(lp4283
F0
asS'gmax'
p4284
(lp4285
F0.001
assS'CaHVA'
p4286
(dp4287
S'iCaH'
p4288
(lp4289
F0
asS'm'
(lp4290
F0
asS'gmax'
p4291
(lp4292
F8.9999999999999992e-05
assS'NaF'
p4293
(dp4294
S'h'
(lp4295
F0
asS's'
(lp4296
F0
asS'm'
(lp4297
F0
asS'iNa'
p4298
(lp4299
F0
asS'gmax'
p4300
(lp4301
F0.035000000000000003
assS'HCN'
p4302
(dp4303
S'ih'
p4304
(lp4305
F0
asS'iHCN'
p4306
(lp4307
F0
asS'm'
(lp4308
F0
asS'gmax'
p4309
(lp4310
F0.0001
asssg205
g206
((ltRp4311
sg208
(dp4312
sg210
F174
sg211
(dp4313
g213
(lp4314
F1
asg215
F0
sg216
I16
sg217
(lp4315
(F-163.25
F-113.69999694824219
F25.059999465942383
F1
tp4316
a(F-163.36392211914062
F-113.92520141601562
F25.08934211730957
F1
tp4317
a(F-163.51191711425781
F-114.12924194335938
F25.098535537719727
F1
tp4318
a(F-163.59318542480469
F-114.36309814453125
F25.098535537719727
F1
tp4319
a(F-163.54139709472656
F-114.60324859619141
F25.113410949707031
F1
tp4320
asS'L'
F1
sg222
F1
ssg223
S'__nrnsec_0x56510796be80'
p4321
sg225
g206
((ltRp4322
sa(dp4323
g58
(dp4324
S'na'
p4325
(dp4326
S'ena'
p4327
(lp4328
F50
asS'dina_dv_'
p4329
(lp4330
F0
asS'nai'
p4331
(lp4332
F10
asS'nao'
p4333
(lp4334
F140
asS'ina'
p4335
(lp4336
F0
asg72
F8
ssS'k'
(dp4337
S'ek'
p4338
(lp4339
F-90
asS'ki'
p4340
(lp4341
F54.399999999999999
asS'ko'
p4342
(lp4343
F2.5
asS'ik'
p4344
(lp4345
F0
asS'dik_dv_'
p4346
(lp4347
F0
asg72
F8
ssS'ca'
p4348
(dp4349
S'eca'
p4350
(lp4351
F132.45793416370091
asS'dica_dv_'
p4352
(lp4353
F0
asS'ica'
p4354
(lp4355
F0
asS'cai'
p4356
(lp4357
F5.0000000000000002e-05
asS'cao'
p4358
(lp4359
F2
asg72
F247
sssg96
S'GPe[0].dend[19]'
p4360
sg98
(lp4361
F2.3999999999999999
asg100
I1
sg101
(dp4362
S'pas'
p4363
(dp4364
S'i'
(lp4365
F0
asS'e'
(lp4366
F-60
asS'g'
(lp4367
F6.802721088435374e-05
assS'Kv4s'
p4368
(dp4369
S'm'
(lp4370
F0
asS'h'
(lp4371
F0
asS'iKv4s'
p4372
(lp4373
F0
asS'gmax'
p4374
(lp4375
F0.0060000000000000001
assS'Kv4f'
p4376
(dp4377
S'iKv4f'
p4378
(lp4379
F0
asS'h'
(lp4380
F0
asS'm'
(lp4381
F0
asS'gmax'
p4382
(lp4383
F0.0040000000000000001
assS'HCN2'
p4384
(dp4385
S'ih'
p4386
(lp4387
F0
asS'iHCN'
p4388
(lp4389
F0
asS'm'
(lp4390
F0
asS'gmax'
p4391
(lp4392
F0.00025000000000000001
assS'KCNQ'
p4393
(dp4394
S'iKCNQ'
p4395
(lp4396
F0
asS'm'
(lp4397
F0
asS'gmax'
p4398
(lp4399
F0.00020000000000000001
assS'SK'
p4400
(dp4401
S'iSK'
p4402
(lp4403
F0
asS'm'
(lp4404
F0
asS'gmax'
p4405
(lp4406
F4.0000000000000003e-05
assS'Calcium'
p4407
(dp4408
S'tau'
p4409
(lp4410
F1
asS'depth'
p4411
(lp4412
F1600000000000
asS'cai0'
p4413
(lp4414
F5.0000000000000002e-05
assS'NaP'
p4415
(dp4416
S'h'
(lp4417
F0
asS's'
(lp4418
F0
asS'm'
(lp4419
F0
asS'iNa'
p4420
(lp4421
F0
asS'gmax'
p4422
(lp4423
F0.0001015
assS'Kv2'
p4424
(dp4425
S'm'
(lp4426
F0
asS'h'
(lp4427
F0
asS'iKv2'
p4428
(lp4429
F0
asS'gmax'
p4430
(lp4431
F0.0001
assS'Kv3'
p4432
(dp4433
S'h'
(lp4434
F0
asS'm'
(lp4435
F0
asS'iKv3'
p4436
(lp4437
F0
asS'gmax'
p4438
(lp4439
F0.001
assS'CaHVA'
p4440
(dp4441
S'iCaH'
p4442
(lp4443
F0
asS'm'
(lp4444
F0
asS'gmax'
p4445
(lp4446
F8.9999999999999992e-05
assS'NaF'
p4447
(dp4448
S'h'
(lp4449
F0
asS's'
(lp4450
F0
asS'm'
(lp4451
F0
asS'iNa'
p4452
(lp4453
F0
asS'gmax'
p4454
(lp4455
F0.035000000000000003
assS'HCN'
p4456
(dp4457
S'ih'
p4458
(lp4459
F0
asS'iHCN'
p4460
(lp4461
F0
asS'm'
(lp4462
F0
asS'gmax'
p4463
(lp4464
F0.0001
asssg205
g206
((ltRp4465
sg208
(dp4466
sg210
F174
sg211
(dp4467
g213
(lp4468
F1
asg215
F0
sg216
I16
sg217
(lp4469
(F-163.25
F-113.69999694824219
F25.059999465942383
F1
tp4470
a(F-162.76670837402344
F-113.78571319580078
F24.955968856811523
F1
tp4471
a(F-162.299560546875
F-113.81865692138672
F24.785812377929688
F1
tp4472
asS'L'
F1
sg222
F1
ssg223
S'__nrnsec_0x56510796be20'
p4473
sg225
g206
((ltRp4474
sa(dp4475
g58
(dp4476
S'na'
p4477
(dp4478
S'ena'
p4479
(lp4480
F50
asS'dina_dv_'
p4481
(lp4482
F0
asS'nai'
p4483
(lp4484
F10
asS'nao'
p4485
(lp4486
F140
asS'ina'
p4487
(lp4488
F0
asg72
F8
ssS'k'
(dp4489
S'ek'
p4490
(lp4491
F-90
asS'ki'
p4492
(lp4493
F54.399999999999999
asS'ko'
p4494
(lp4495
F2.5
asS'ik'
p4496
(lp4497
F0
asS'dik_dv_'
p4498
(lp4499
F0
asg72
F8
ssS'ca'
p4500
(dp4501
S'eca'
p4502
(lp4503
F132.45793416370091
asS'dica_dv_'
p4504
(lp4505
F0
asS'ica'
p4506
(lp4507
F0
asS'cai'
p4508
(lp4509
F5.0000000000000002e-05
asS'cao'
p4510
(lp4511
F2
asg72
F247
sssg96
S'GPe[0].dend[16]'
p4512
sg98
(lp4513
F2.3999999999999999
asg100
I1
sg101
(dp4514
S'pas'
p4515
(dp4516
S'i'
(lp4517
F0
asS'e'
(lp4518
F-60
asS'g'
(lp4519
F6.802721088435374e-05
assS'Kv4s'
p4520
(dp4521
S'm'
(lp4522
F0
asS'h'
(lp4523
F0
asS'iKv4s'
p4524
(lp4525
F0
asS'gmax'
p4526
(lp4527
F0.0060000000000000001
assS'Kv4f'
p4528
(dp4529
S'iKv4f'
p4530
(lp4531
F0
asS'h'
(lp4532
F0
asS'm'
(lp4533
F0
asS'gmax'
p4534
(lp4535
F0.0040000000000000001
assS'HCN2'
p4536
(dp4537
S'ih'
p4538
(lp4539
F0
asS'iHCN'
p4540
(lp4541
F0
asS'm'
(lp4542
F0
asS'gmax'
p4543
(lp4544
F0.00025000000000000001
assS'KCNQ'
p4545
(dp4546
S'iKCNQ'
p4547
(lp4548
F0
asS'm'
(lp4549
F0
asS'gmax'
p4550
(lp4551
F0.00020000000000000001
assS'SK'
p4552
(dp4553
S'iSK'
p4554
(lp4555
F0
asS'm'
(lp4556
F0
asS'gmax'
p4557
(lp4558
F4.0000000000000003e-05
assS'Calcium'
p4559
(dp4560
S'tau'
p4561
(lp4562
F1
asS'depth'
p4563
(lp4564
F1600000000000
asS'cai0'
p4565
(lp4566
F5.0000000000000002e-05
assS'NaP'
p4567
(dp4568
S'h'
(lp4569
F0
asS's'
(lp4570
F0
asS'm'
(lp4571
F0
asS'iNa'
p4572
(lp4573
F0
asS'gmax'
p4574
(lp4575
F0.0001015
assS'Kv2'
p4576
(dp4577
S'm'
(lp4578
F0
asS'h'
(lp4579
F0
asS'iKv2'
p4580
(lp4581
F0
asS'gmax'
p4582
(lp4583
F0.0001
assS'Kv3'
p4584
(dp4585
S'h'
(lp4586
F0
asS'm'
(lp4587
F0
asS'iKv3'
p4588
(lp4589
F0
asS'gmax'
p4590
(lp4591
F0.001
assS'CaHVA'
p4592
(dp4593
S'iCaH'
p4594
(lp4595
F0
asS'm'
(lp4596
F0
asS'gmax'
p4597
(lp4598
F4.4999999999999996e-05
assS'NaF'
p4599
(dp4600
S'h'
(lp4601
F0
asS's'
(lp4602
F0
asS'm'
(lp4603
F0
asS'iNa'
p4604
(lp4605
F0
asS'gmax'
p4606
(lp4607
F0.035000000000000003
assS'HCN'
p4608
(dp4609
S'ih'
p4610
(lp4611
F0
asS'iHCN'
p4612
(lp4613
F0
asS'm'
(lp4614
F0
asS'gmax'
p4615
(lp4616
F0.0001
asssg205
g206
((ltRp4617
sg208
(dp4618
sg210
F174
sg211
(dp4619
g213
(lp4620
F1
asg215
F0
sg216
I17
sg217
(lp4621
(F-209.30000305175781
F-81.44000244140625
F67.470001220703125
F1
tp4622
a(F-209.041015625
F-81.437828063964844
F67.469505310058594
F1
tp4623
a(F-208.84642028808594
F-81.509033203125
F67.529159545898438
F1
tp4624
a(F-208.75323486328125
F-81.703514099121094
F67.669639587402344
F1
tp4625
a(F-208.93190002441406
F-81.84039306640625
F67.815139770507812
F1
tp4626
asS'L'
F1
sg222
F1
ssg223
S'__nrnsec_0x56510796bd00'
p4627
sg225
g206
((ltRp4628
sa(dp4629
g58
(dp4630
S'na'
p4631
(dp4632
S'ena'
p4633
(lp4634
F50
asS'dina_dv_'
p4635
(lp4636
F0
asS'nai'
p4637
(lp4638
F10
asS'nao'
p4639
(lp4640
F140
asS'ina'
p4641
(lp4642
F0
asg72
F8
ssS'k'
(dp4643
S'ek'
p4644
(lp4645
F-90
asS'ki'
p4646
(lp4647
F54.399999999999999
asS'ko'
p4648
(lp4649
F2.5
asS'ik'
p4650
(lp4651
F0
asS'dik_dv_'
p4652
(lp4653
F0
asg72
F8
ssS'ca'
p4654
(dp4655
S'eca'
p4656
(lp4657
F132.45793416370091
asS'dica_dv_'
p4658
(lp4659
F0
asS'ica'
p4660
(lp4661
F0
asS'cai'
p4662
(lp4663
F5.0000000000000002e-05
asS'cao'
p4664
(lp4665
F2
asg72
F247
sssg96
S'GPe[0].dend[15]'
p4666
sg98
(lp4667
F2.3999999999999999
asg100
I1
sg101
(dp4668
S'pas'
p4669
(dp4670
S'i'
(lp4671
F0
asS'e'
(lp4672
F-60
asS'g'
(lp4673
F6.802721088435374e-05
assS'Kv4s'
p4674
(dp4675
S'm'
(lp4676
F0
asS'h'
(lp4677
F0
asS'iKv4s'
p4678
(lp4679
F0
asS'gmax'
p4680
(lp4681
F0.0060000000000000001
assS'Kv4f'
p4682
(dp4683
S'iKv4f'
p4684
(lp4685
F0
asS'h'
(lp4686
F0
asS'm'
(lp4687
F0
asS'gmax'
p4688
(lp4689
F0.0040000000000000001
assS'HCN2'
p4690
(dp4691
S'ih'
p4692
(lp4693
F0
asS'iHCN'
p4694
(lp4695
F0
asS'm'
(lp4696
F0
asS'gmax'
p4697
(lp4698
F0.00025000000000000001
assS'KCNQ'
p4699
(dp4700
S'iKCNQ'
p4701
(lp4702
F0
asS'm'
(lp4703
F0
asS'gmax'
p4704
(lp4705
F0.00020000000000000001
assS'SK'
p4706
(dp4707
S'iSK'
p4708
(lp4709
F0
asS'm'
(lp4710
F0
asS'gmax'
p4711
(lp4712
F4.0000000000000003e-05
assS'Calcium'
p4713
(dp4714
S'tau'
p4715
(lp4716
F1
asS'depth'
p4717
(lp4718
F1600000000000
asS'cai0'
p4719
(lp4720
F5.0000000000000002e-05
assS'NaP'
p4721
(dp4722
S'h'
(lp4723
F0
asS's'
(lp4724
F0
asS'm'
(lp4725
F0
asS'iNa'
p4726
(lp4727
F0
asS'gmax'
p4728
(lp4729
F0.0001015
assS'Kv2'
p4730
(dp4731
S'm'
(lp4732
F0
asS'h'
(lp4733
F0
asS'iKv2'
p4734
(lp4735
F0
asS'gmax'
p4736
(lp4737
F0.0001
assS'Kv3'
p4738
(dp4739
S'h'
(lp4740
F0
asS'm'
(lp4741
F0
asS'iKv3'
p4742
(lp4743
F0
asS'gmax'
p4744
(lp4745
F0.001
assS'CaHVA'
p4746
(dp4747
S'iCaH'
p4748
(lp4749
F0
asS'm'
(lp4750
F0
asS'gmax'
p4751
(lp4752
F4.4999999999999996e-05
assS'NaF'
p4753
(dp4754
S'h'
(lp4755
F0
asS's'
(lp4756
F0
asS'm'
(lp4757
F0
asS'iNa'
p4758
(lp4759
F0
asS'gmax'
p4760
(lp4761
F0.035000000000000003
assS'HCN'
p4762
(dp4763
S'ih'
p4764
(lp4765
F0
asS'iHCN'
p4766
(lp4767
F0
asS'm'
(lp4768
F0
asS'gmax'
p4769
(lp4770
F0.0001
asssg205
g206
((ltRp4771
sg208
(dp4772
sg210
F174
sg211
(dp4773
g213
(lp4774
F1
asg215
F0
sg216
I17
sg217
(lp4775
(F-209.30000305175781
F-81.44000244140625
F67.470001220703125
F1
tp4776
a(F-209.68194580078125
F-81.518295288085938
F67.478874206542969
F1
tp4777
a(F-210.03695678710938
F-81.545875549316406
F67.497207641601562
F1
tp4778
a(F-210.19384765625
F-81.542030334472656
F67.696235656738281
F1
tp4779
asS'L'
F1
sg222
F1
ssg223
S'__nrnsec_0x56510796bca0'
p4780
sg225
g206
((ltRp4781
sa(dp4782
g58
(dp4783
S'na'
p4784
(dp4785
S'ena'
p4786
(lp4787
F50
aF50
aF50
asS'dina_dv_'
p4788
(lp4789
F0
aF0
aF0
asS'nai'
p4790
(lp4791
F10
aF10
aF10
asS'nao'
p4792
(lp4793
F140
aF140
aF140
asS'ina'
p4794
(lp4795
F0
aF0
aF0
asg72
F8
ssS'k'
(dp4796
S'ek'
p4797
(lp4798
F-90
aF-90
aF-90
asS'ki'
p4799
(lp4800
F54.399999999999999
aF54.399999999999999
aF54.399999999999999
asS'ko'
p4801
(lp4802
F2.5
aF2.5
aF2.5
asS'ik'
p4803
(lp4804
F0
aF0
aF0
asS'dik_dv_'
p4805
(lp4806
F0
aF0
aF0
asg72
F8
ssS'ca'
p4807
(dp4808
S'eca'
p4809
(lp4810
F132.45793416370091
aF132.45793416370091
aF132.45793416370091
asS'dica_dv_'
p4811
(lp4812
F0
aF0
aF0
asS'ica'
p4813
(lp4814
F0
aF0
aF0
asS'cai'
p4815
(lp4816
F5.0000000000000002e-05
aF5.0000000000000002e-05
aF5.0000000000000002e-05
asS'cao'
p4817
(lp4818
F2
aF2
aF2
asg72
F247
sssg96
S'GPe[0].dend[9]'
p4819
sg98
(lp4820
F2.3999999999999999
aF2.3999999999999999
aF2.3999999999999999
asg100
I3
sg101
(dp4821
S'pas'
p4822
(dp4823
S'i'
(lp4824
F0
aF0
aF0
asS'e'
(lp4825
F-60
aF-60
aF-60
asS'g'
(lp4826
F6.802721088435374e-05
aF6.802721088435374e-05
aF6.802721088435374e-05
assS'Kv4s'
p4827
(dp4828
S'm'
(lp4829
F0
aF0
aF0
asS'h'
(lp4830
F0
aF0
aF0
asS'iKv4s'
p4831
(lp4832
F0
aF0
aF0
asS'gmax'
p4833
(lp4834
F0.0060000000000000001
aF0.0060000000000000001
aF0.0060000000000000001
assS'Kv4f'
p4835
(dp4836
S'iKv4f'
p4837
(lp4838
F0
aF0
aF0
asS'h'
(lp4839
F0
aF0
aF0
asS'm'
(lp4840
F0
aF0
aF0
asS'gmax'
p4841
(lp4842
F0.0040000000000000001
aF0.0040000000000000001
aF0.0040000000000000001
assS'HCN2'
p4843
(dp4844
S'ih'
p4845
(lp4846
F0
aF0
aF0
asS'iHCN'
p4847
(lp4848
F0
aF0
aF0
asS'm'
(lp4849
F0
aF0
aF0
asS'gmax'
p4850
(lp4851
F0.00025000000000000001
aF0.00025000000000000001
aF0.00025000000000000001
assS'KCNQ'
p4852
(dp4853
S'iKCNQ'
p4854
(lp4855
F0
aF0
aF0
asS'm'
(lp4856
F0
aF0
aF0
asS'gmax'
p4857
(lp4858
F0.00020000000000000001
aF0.00020000000000000001
aF0.00020000000000000001
assS'SK'
p4859
(dp4860
S'iSK'
p4861
(lp4862
F0
aF0
aF0
asS'm'
(lp4863
F0
aF0
aF0
asS'gmax'
p4864
(lp4865
F4.0000000000000003e-05
aF4.0000000000000003e-05
aF4.0000000000000003e-05
assS'Calcium'
p4866
(dp4867
S'tau'
p4868
(lp4869
F1
aF1
aF1
asS'depth'
p4870
(lp4871
F1600000000000
aF1600000000000
aF1600000000000
asS'cai0'
p4872
(lp4873
F5.0000000000000002e-05
aF5.0000000000000002e-05
aF5.0000000000000002e-05
assS'NaP'
p4874
(dp4875
S'h'
(lp4876
F0
aF0
aF0
asS's'
(lp4877
F0
aF0
aF0
asS'm'
(lp4878
F0
aF0
aF0
asS'iNa'
p4879
(lp4880
F0
aF0
aF0
asS'gmax'
p4881
(lp4882
F0.0001015
aF0.0001015
aF0.0001015
assS'Kv2'
p4883
(dp4884
S'm'
(lp4885
F0
aF0
aF0
asS'h'
(lp4886
F0
aF0
aF0
asS'iKv2'
p4887
(lp4888
F0
aF0
aF0
asS'gmax'
p4889
(lp4890
F0.0001
aF0.0001
aF0.0001
assS'Kv3'
p4891
(dp4892
S'h'
(lp4893
F0
aF0
aF0
asS'm'
(lp4894
F0
aF0
aF0
asS'iKv3'
p4895
(lp4896
F0
aF0
aF0
asS'gmax'
p4897
(lp4898
F0.001
aF0.001
aF0.001
assS'CaHVA'
p4899
(dp4900
S'iCaH'
p4901
(lp4902
F0
aF0
aF0
asS'm'
(lp4903
F0
aF0
aF0
asS'gmax'
p4904
(lp4905
F4.4999999999999996e-05
aF4.4999999999999996e-05
aF4.4999999999999996e-05
assS'NaF'
p4906
(dp4907
S'h'
(lp4908
F0
aF0
aF0
asS's'
(lp4909
F0
aF0
aF0
asS'm'
(lp4910
F0
aF0
aF0
asS'iNa'
p4911
(lp4912
F0
aF0
aF0
asS'gmax'
p4913
(lp4914
F0.035000000000000003
aF0.035000000000000003
aF0.035000000000000003
assS'HCN'
p4915
(dp4916
S'ih'
p4917
(lp4918
F0
aF0
aF0
asS'iHCN'
p4919
(lp4920
F0
aF0
aF0
asS'm'
(lp4921
F0
aF0
aF0
asS'gmax'
p4922
(lp4923
F0.0001
aF0.0001
aF0.0001
asssg205
g206
((ltRp4924
sg208
(dp4925
sg210
F174
sg211
(dp4926
g213
(lp4927
F1
aF1
aF1
asg215
F0
sg216
I19
sg217
(lp4928
(F-169.75999450683594
F-34.209999084472656
F24.379999160766602
F1
tp4929
a(F-169.84040832519531
F-34.229801177978516
F24.44842529296875
F1
tp4930
a(F-169.94374084472656
F-34.232135772705078
F24.449008941650391
F1
tp4931
a(F-170.00238037109375
F-34.305049896240234
F24.487165451049805
F1
tp4932
a(F-170.05615234375
F-34.388851165771484
F24.498737335205078
F1
tp4933
a(F-170.07127380371094
F-34.490623474121094
F24.530233383178711
F1
tp4934
a(F-170.08212280273438
F-34.589923858642578
F24.559394836425781
F1
tp4935
a(F-170.04414367675781
F-34.633472442626953
F24.641847610473633
F1
tp4936
a(F-170.00056457519531
F-34.680809020996094
F24.662960052490234
F1
tp4937
a(F-169.98689270019531
F-34.787189483642578
F24.66942024230957
F1
tp4938
a(F-169.99867248535156
F-34.880168914794922
F24.63337516784668
F1
tp4939
asS'L'
F1
sg222
F1
ssg223
S'__nrnsec_0x56510796ba60'
p4940
sg225
g206
((ltRp4941
sa(dp4942
g58
(dp4943
S'na'
p4944
(dp4945
S'ena'
p4946
(lp4947
F50
aF50
aF50
asS'dina_dv_'
p4948
(lp4949
F0
aF0
aF0
asS'nai'
p4950
(lp4951
F10
aF10
aF10
asS'nao'
p4952
(lp4953
F140
aF140
aF140
asS'ina'
p4954
(lp4955
F0
aF0
aF0
asg72
F8
ssS'k'
(dp4956
S'ek'
p4957
(lp4958
F-90
aF-90
aF-90
asS'ki'
p4959
(lp4960
F54.399999999999999
aF54.399999999999999
aF54.399999999999999
asS'ko'
p4961
(lp4962
F2.5
aF2.5
aF2.5
asS'ik'
p4963
(lp4964
F0
aF0
aF0
asS'dik_dv_'
p4965
(lp4966
F0
aF0
aF0
asg72
F8
ssS'ca'
p4967
(dp4968
S'eca'
p4969
(lp4970
F132.45793416370091
aF132.45793416370091
aF132.45793416370091
asS'dica_dv_'
p4971
(lp4972
F0
aF0
aF0
asS'ica'
p4973
(lp4974
F0
aF0
aF0
asS'cai'
p4975
(lp4976
F5.0000000000000002e-05
aF5.0000000000000002e-05
aF5.0000000000000002e-05
asS'cao'
p4977
(lp4978
F2
aF2
aF2
asg72
F247
sssg96
S'GPe[0].dend[4]'
p4979
sg98
(lp4980
F2.3999999999999999
aF2.3999999999999999
aF2.3999999999999999
asg100
I3
sg101
(dp4981
S'pas'
p4982
(dp4983
S'i'
(lp4984
F0
aF0
aF0
asS'e'
(lp4985
F-60
aF-60
aF-60
asS'g'
(lp4986
F6.802721088435374e-05
aF6.802721088435374e-05
aF6.802721088435374e-05
assS'Kv4s'
p4987
(dp4988
S'm'
(lp4989
F0
aF0
aF0
asS'h'
(lp4990
F0
aF0
aF0
asS'iKv4s'
p4991
(lp4992
F0
aF0
aF0
asS'gmax'
p4993
(lp4994
F0.0060000000000000001
aF0.0060000000000000001
aF0.0060000000000000001
assS'Kv4f'
p4995
(dp4996
S'iKv4f'
p4997
(lp4998
F0
aF0
aF0
asS'h'
(lp4999
F0
aF0
aF0
asS'm'
(lp5000
F0
aF0
aF0
asS'gmax'
p5001
(lp5002
F0.0040000000000000001
aF0.0040000000000000001
aF0.0040000000000000001
assS'HCN2'
p5003
(dp5004
S'ih'
p5005
(lp5006
F0
aF0
aF0
asS'iHCN'
p5007
(lp5008
F0
aF0
aF0
asS'm'
(lp5009
F0
aF0
aF0
asS'gmax'
p5010
(lp5011
F0.00025000000000000001
aF0.00025000000000000001
aF0.00025000000000000001
assS'KCNQ'
p5012
(dp5013
S'iKCNQ'
p5014
(lp5015
F0
aF0
aF0
asS'm'
(lp5016
F0
aF0
aF0
asS'gmax'
p5017
(lp5018
F0.00020000000000000001
aF0.00020000000000000001
aF0.00020000000000000001
assS'SK'
p5019
(dp5020
S'iSK'
p5021
(lp5022
F0
aF0
aF0
asS'm'
(lp5023
F0
aF0
aF0
asS'gmax'
p5024
(lp5025
F4.0000000000000003e-05
aF4.0000000000000003e-05
aF4.0000000000000003e-05
assS'Calcium'
p5026
(dp5027
S'tau'
p5028
(lp5029
F1
aF1
aF1
asS'depth'
p5030
(lp5031
F1600000000000
aF1600000000000
aF1600000000000
asS'cai0'
p5032
(lp5033
F5.0000000000000002e-05
aF5.0000000000000002e-05
aF5.0000000000000002e-05
assS'NaP'
p5034
(dp5035
S'h'
(lp5036
F0
aF0
aF0
asS's'
(lp5037
F0
aF0
aF0
asS'm'
(lp5038
F0
aF0
aF0
asS'iNa'
p5039
(lp5040
F0
aF0
aF0
asS'gmax'
p5041
(lp5042
F0.0001015
aF0.0001015
aF0.0001015
assS'Kv2'
p5043
(dp5044
S'm'
(lp5045
F0
aF0
aF0
asS'h'
(lp5046
F0
aF0
aF0
asS'iKv2'
p5047
(lp5048
F0
aF0
aF0
asS'gmax'
p5049
(lp5050
F0.0001
aF0.0001
aF0.0001
assS'Kv3'
p5051
(dp5052
S'h'
(lp5053
F0
aF0
aF0
asS'm'
(lp5054
F0
aF0
aF0
asS'iKv3'
p5055
(lp5056
F0
aF0
aF0
asS'gmax'
p5057
(lp5058
F0.001
aF0.001
aF0.001
assS'CaHVA'
p5059
(dp5060
S'iCaH'
p5061
(lp5062
F0
aF0
aF0
asS'm'
(lp5063
F0
aF0
aF0
asS'gmax'
p5064
(lp5065
F4.4999999999999996e-05
aF4.4999999999999996e-05
aF4.4999999999999996e-05
assS'NaF'
p5066
(dp5067
S'h'
(lp5068
F0
aF0
aF0
asS's'
(lp5069
F0
aF0
aF0
asS'm'
(lp5070
F0
aF0
aF0
asS'iNa'
p5071
(lp5072
F0
aF0
aF0
asS'gmax'
p5073
(lp5074
F0.035000000000000003
aF0.035000000000000003
aF0.035000000000000003
assS'HCN'
p5075
(dp5076
S'ih'
p5077
(lp5078
F0
aF0
aF0
asS'iHCN'
p5079
(lp5080
F0
aF0
aF0
asS'm'
(lp5081
F0
aF0
aF0
asS'gmax'
p5082
(lp5083
F0.0001
aF0.0001
aF0.0001
asssg205
g206
((ltRp5084
sg208
(dp5085
sg210
F174
sg211
(dp5086
g213
(lp5087
F1
aF1
aF1
asg215
F0
sg216
I19
sg217
(lp5088
(F-169.75999450683594
F-34.209999084472656
F24.379999160766602
F1
tp5089
a(F-169.82192993164062
F-34.287975311279297
F24.397254943847656
F1
tp5090
a(F-169.88056945800781
F-34.372444152832031
F24.397254943847656
F1
tp5091
a(F-169.94743347167969
F-34.448829650878906
F24.404445648193359
F1
tp5092
a(F-170.00013732910156
F-34.5369873046875
F24.414510726928711
F1
tp5093
a(F-170.05018615722656
F-34.625030517578125
F24.414510726928711
F1
tp5094
a(F-170.1046142578125
F-34.709194183349609
F24.406898498535156
F1
tp5095
a(F-170.12251281738281
F-34.790485382080078
F24.372961044311523
F1
tp5096
a(F-170.1309814453125
F-34.887882232666016
F24.374534606933594
F1
tp5097
a(F-170.18809509277344
F-34.969917297363281
F24.374670028686523
F1
tp5098
a(F-170.22236633300781
F-35.063674926757812
F24.355129241943359
F1
tp5099
asS'L'
F1
sg222
F1
ssg223
S'__nrnsec_0x56510796b880'
p5100
sg225
g206
((ltRp5101
sa(dp5102
g58
(dp5103
S'na'
p5104
(dp5105
S'ena'
p5106
(lp5107
F50
aF50
aF50
asS'dina_dv_'
p5108
(lp5109
F0
aF0
aF0
asS'nai'
p5110
(lp5111
F10
aF10
aF10
asS'nao'
p5112
(lp5113
F140
aF140
aF140
asS'ina'
p5114
(lp5115
F0
aF0
aF0
asg72
F8
ssS'k'
(dp5116
S'ek'
p5117
(lp5118
F-90
aF-90
aF-90
asS'ki'
p5119
(lp5120
F54.399999999999999
aF54.399999999999999
aF54.399999999999999
asS'ko'
p5121
(lp5122
F2.5
aF2.5
aF2.5
asS'ik'
p5123
(lp5124
F0
aF0
aF0
asS'dik_dv_'
p5125
(lp5126
F0
aF0
aF0
asg72
F8
ssS'ca'
p5127
(dp5128
S'eca'
p5129
(lp5130
F132.45793416370091
aF132.45793416370091
aF132.45793416370091
asS'dica_dv_'
p5131
(lp5132
F0
aF0
aF0
asS'ica'
p5133
(lp5134
F0
aF0
aF0
asS'cai'
p5135
(lp5136
F5.0000000000000002e-05
aF5.0000000000000002e-05
aF5.0000000000000002e-05
asS'cao'
p5137
(lp5138
F2
aF2
aF2
asg72
F247
sssg96
S'GPe[0].dend[29]'
p5139
sg98
(lp5140
F2.3999999999999999
aF2.3999999999999999
aF2.3999999999999999
asg100
I3
sg101
(dp5141
S'pas'
p5142
(dp5143
S'i'
(lp5144
F0
aF0
aF0
asS'e'
(lp5145
F-60
aF-60
aF-60
asS'g'
(lp5146
F6.802721088435374e-05
aF6.802721088435374e-05
aF6.802721088435374e-05
assS'Kv4s'
p5147
(dp5148
S'm'
(lp5149
F0
aF0
aF0
asS'h'
(lp5150
F0
aF0
aF0
asS'iKv4s'
p5151
(lp5152
F0
aF0
aF0
asS'gmax'
p5153
(lp5154
F0.0060000000000000001
aF0.0060000000000000001
aF0.0060000000000000001
assS'Kv4f'
p5155
(dp5156
S'iKv4f'
p5157
(lp5158
F0
aF0
aF0
asS'h'
(lp5159
F0
aF0
aF0
asS'm'
(lp5160
F0
aF0
aF0
asS'gmax'
p5161
(lp5162
F0.0040000000000000001
aF0.0040000000000000001
aF0.0040000000000000001
assS'HCN2'
p5163
(dp5164
S'ih'
p5165
(lp5166
F0
aF0
aF0
asS'iHCN'
p5167
(lp5168
F0
aF0
aF0
asS'm'
(lp5169
F0
aF0
aF0
asS'gmax'
p5170
(lp5171
F0.00025000000000000001
aF0.00025000000000000001
aF0.00025000000000000001
assS'KCNQ'
p5172
(dp5173
S'iKCNQ'
p5174
(lp5175
F0
aF0
aF0
asS'm'
(lp5176
F0
aF0
aF0
asS'gmax'
p5177
(lp5178
F0.00020000000000000001
aF0.00020000000000000001
aF0.00020000000000000001
assS'SK'
p5179
(dp5180
S'iSK'
p5181
(lp5182
F0
aF0
aF0
asS'm'
(lp5183
F0
aF0
aF0
asS'gmax'
p5184
(lp5185
F4.0000000000000003e-05
aF4.0000000000000003e-05
aF4.0000000000000003e-05
assS'Calcium'
p5186
(dp5187
S'tau'
p5188
(lp5189
F1
aF1
aF1
asS'depth'
p5190
(lp5191
F1600000000000
aF1600000000000
aF1600000000000
asS'cai0'
p5192
(lp5193
F5.0000000000000002e-05
aF5.0000000000000002e-05
aF5.0000000000000002e-05
assS'NaP'
p5194
(dp5195
S'h'
(lp5196
F0
aF0
aF0
asS's'
(lp5197
F0
aF0
aF0
asS'm'
(lp5198
F0
aF0
aF0
asS'iNa'
p5199
(lp5200
F0
aF0
aF0
asS'gmax'
p5201
(lp5202
F0.0001015
aF0.0001015
aF0.0001015
assS'Kv2'
p5203
(dp5204
S'm'
(lp5205
F0
aF0
aF0
asS'h'
(lp5206
F0
aF0
aF0
asS'iKv2'
p5207
(lp5208
F0
aF0
aF0
asS'gmax'
p5209
(lp5210
F0.0001
aF0.0001
aF0.0001
assS'Kv3'
p5211
(dp5212
S'h'
(lp5213
F0
aF0
aF0
asS'm'
(lp5214
F0
aF0
aF0
asS'iKv3'
p5215
(lp5216
F0
aF0
aF0
asS'gmax'
p5217
(lp5218
F0.001
aF0.001
aF0.001
assS'CaHVA'
p5219
(dp5220
S'iCaH'
p5221
(lp5222
F0
aF0
aF0
asS'm'
(lp5223
F0
aF0
aF0
asS'gmax'
p5224
(lp5225
F8.9999999999999992e-05
aF8.9999999999999992e-05
aF8.9999999999999992e-05
assS'NaF'
p5226
(dp5227
S'h'
(lp5228
F0
aF0
aF0
asS's'
(lp5229
F0
aF0
aF0
asS'm'
(lp5230
F0
aF0
aF0
asS'iNa'
p5231
(lp5232
F0
aF0
aF0
asS'gmax'
p5233
(lp5234
F0.035000000000000003
aF0.035000000000000003
aF0.035000000000000003
assS'HCN'
p5235
(dp5236
S'ih'
p5237
(lp5238
F0
aF0
aF0
asS'iHCN'
p5239
(lp5240
F0
aF0
aF0
asS'm'
(lp5241
F0
aF0
aF0
asS'gmax'
p5242
(lp5243
F0.0001
aF0.0001
aF0.0001
asssg205
g206
((ltRp5244
sg208
(dp5245
sg210
F174
sg211
(dp5246
g213
(lp5247
F1
aF1
aF1
asg215
F0
sg216
I23
sg217
(lp5248
(F-94.316001892089844
F-112.95600128173828
F30.729999542236328
F1
tp5249
a(F-94.394172668457031
F-112.96691131591797
F30.729999542236328
F1
tp5250
a(F-94.464324951171875
F-112.96535491943359
F30.729999542236328
F1
tp5251
a(F-94.521598815917969
F-112.98780822753906
F30.707221984863281
F1
tp5252
a(F-94.546966552734375
F-113.05886840820312
F30.676704406738281
F1
tp5253
a(F-94.555740356445312
F-113.13930511474609
F30.660661697387695
F1
tp5254
a(F-94.558395385742188
F-113.21968078613281
F30.641820907592773
F1
tp5255
a(F-94.557502746582031
F-113.29570770263672
F30.625640869140625
F1
tp5256
a(F-94.607940673828125
F-113.35848236083984
F30.604318618774414
F1
tp5257
a(F-94.627204895019531
F-113.43248748779297
F30.580862045288086
F1
tp5258
a(F-94.645950317382812
F-113.39661407470703
F30.570199966430664
F1
tp5259
a(F-94.664398193359375
F-113.44828796386719
F30.545791625976562
F1
tp5260
a(F-94.694427490234375
F-113.51046752929688
F30.529436111450195
F1
tp5261
a(F-94.706077575683594
F-113.57368469238281
F30.506607055664062
F1
tp5262
a(F-94.672065734863281
F-113.61316680908203
F30.484218597412109
F1
tp5263
asS'L'
F1
sg222
F1
ssg223
S'__nrnsec_0x56510796c1e0'
p5264
sg225
g206
((ltRp5265
sa(dp5266
g58
(dp5267
S'na'
p5268
(dp5269
S'ena'
p5270
(lp5271
F50
aF50
aF50
aF50
aF50
aF50
aF50
asS'dina_dv_'
p5272
(lp5273
F0
aF0
aF0
aF0
aF0
aF0
aF0
asS'nai'
p5274
(lp5275
F10
aF10
aF10
aF10
aF10
aF10
aF10
asS'nao'
p5276
(lp5277
F140
aF140
aF140
aF140
aF140
aF140
aF140
asS'ina'
p5278
(lp5279
F0
aF0
aF0
aF0
aF0
aF0
aF0
asg72
F8
ssS'k'
(dp5280
S'ek'
p5281
(lp5282
F-90
aF-90
aF-90
aF-90
aF-90
aF-90
aF-90
asS'ki'
p5283
(lp5284
F54.399999999999999
aF54.399999999999999
aF54.399999999999999
aF54.399999999999999
aF54.399999999999999
aF54.399999999999999
aF54.399999999999999
asS'ko'
p5285
(lp5286
F2.5
aF2.5
aF2.5
aF2.5
aF2.5
aF2.5
aF2.5
asS'ik'
p5287
(lp5288
F0
aF0
aF0
aF0
aF0
aF0
aF0
asS'dik_dv_'
p5289
(lp5290
F0
aF0
aF0
aF0
aF0
aF0
aF0
asg72
F8
ssS'ca'
p5291
(dp5292
S'eca'
p5293
(lp5294
F132.45793416370091
aF132.45793416370091
aF132.45793416370091
aF132.45793416370091
aF132.45793416370091
aF132.45793416370091
aF132.45793416370091
asS'dica_dv_'
p5295
(lp5296
F0
aF0
aF0
aF0
aF0
aF0
aF0
asS'ica'
p5297
(lp5298
F0
aF0
aF0
aF0
aF0
aF0
aF0
asS'cai'
p5299
(lp5300
F5.0000000000000002e-05
aF5.0000000000000002e-05
aF5.0000000000000002e-05
aF5.0000000000000002e-05
aF5.0000000000000002e-05
aF5.0000000000000002e-05
aF5.0000000000000002e-05
asS'cao'
p5301
(lp5302
F2
aF2
aF2
aF2
aF2
aF2
aF2
asg72
F247
sssg96
S'GPe[0].dend[28]'
p5303
sg98
(lp5304
F2.3999999999999999
aF2.3999999999999999
aF2.3999999999999999
aF2.3999999999999999
aF2.3999999999999999
aF2.3999999999999999
aF2.3999999999999999
asg100
I7
sg101
(dp5305
S'pas'
p5306
(dp5307
S'i'
(lp5308
F0
aF0
aF0
aF0
aF0
aF0
aF0
asS'e'
(lp5309
F-60
aF-60
aF-60
aF-60
aF-60
aF-60
aF-60
asS'g'
(lp5310
F6.802721088435374e-05
aF6.802721088435374e-05
aF6.802721088435374e-05
aF6.802721088435374e-05
aF6.802721088435374e-05
aF6.802721088435374e-05
aF6.802721088435374e-05
assS'Kv4s'
p5311
(dp5312
S'm'
(lp5313
F0
aF0
aF0
aF0
aF0
aF0
aF0
asS'h'
(lp5314
F0
aF0
aF0
aF0
aF0
aF0
aF0
asS'iKv4s'
p5315
(lp5316
F0
aF0
aF0
aF0
aF0
aF0
aF0
asS'gmax'
p5317
(lp5318
F0.0060000000000000001
aF0.0060000000000000001
aF0.0060000000000000001
aF0.0060000000000000001
aF0.0060000000000000001
aF0.0060000000000000001
aF0.0060000000000000001
assS'Kv4f'
p5319
(dp5320
S'iKv4f'
p5321
(lp5322
F0
aF0
aF0
aF0
aF0
aF0
aF0
asS'h'
(lp5323
F0
aF0
aF0
aF0
aF0
aF0
aF0
asS'm'
(lp5324
F0
aF0
aF0
aF0
aF0
aF0
aF0
asS'gmax'
p5325
(lp5326
F0.0040000000000000001
aF0.0040000000000000001
aF0.0040000000000000001
aF0.0040000000000000001
aF0.0040000000000000001
aF0.0040000000000000001
aF0.0040000000000000001
assS'HCN2'
p5327
(dp5328
S'ih'
p5329
(lp5330
F0
aF0
aF0
aF0
aF0
aF0
aF0
asS'iHCN'
p5331
(lp5332
F0
aF0
aF0
aF0
aF0
aF0
aF0
asS'm'
(lp5333
F0
aF0
aF0
aF0
aF0
aF0
aF0
asS'gmax'
p5334
(lp5335
F0.00025000000000000001
aF0.00025000000000000001
aF0.00025000000000000001
aF0.00025000000000000001
aF0.00025000000000000001
aF0.00025000000000000001
aF0.00025000000000000001
assS'KCNQ'
p5336
(dp5337
S'iKCNQ'
p5338
(lp5339
F0
aF0
aF0
aF0
aF0
aF0
aF0
asS'm'
(lp5340
F0
aF0
aF0
aF0
aF0
aF0
aF0
asS'gmax'
p5341
(lp5342
F0.00020000000000000001
aF0.00020000000000000001
aF0.00020000000000000001
aF0.00020000000000000001
aF0.00020000000000000001
aF0.00020000000000000001
aF0.00020000000000000001
assS'SK'
p5343
(dp5344
S'iSK'
p5345
(lp5346
F0
aF0
aF0
aF0
aF0
aF0
aF0
asS'm'
(lp5347
F0
aF0
aF0
aF0
aF0
aF0
aF0
asS'gmax'
p5348
(lp5349
F4.0000000000000003e-05
aF4.0000000000000003e-05
aF4.0000000000000003e-05
aF4.0000000000000003e-05
aF4.0000000000000003e-05
aF4.0000000000000003e-05
aF4.0000000000000003e-05
assS'Calcium'
p5350
(dp5351
S'tau'
p5352
(lp5353
F1
aF1
aF1
aF1
aF1
aF1
aF1
asS'depth'
p5354
(lp5355
F1600000000000
aF1600000000000
aF1600000000000
aF1600000000000
aF1600000000000
aF1600000000000
aF1600000000000
asS'cai0'
p5356
(lp5357
F5.0000000000000002e-05
aF5.0000000000000002e-05
aF5.0000000000000002e-05
aF5.0000000000000002e-05
aF5.0000000000000002e-05
aF5.0000000000000002e-05
aF5.0000000000000002e-05
assS'NaP'
p5358
(dp5359
S'h'
(lp5360
F0
aF0
aF0
aF0
aF0
aF0
aF0
asS's'
(lp5361
F0
aF0
aF0
aF0
aF0
aF0
aF0
asS'm'
(lp5362
F0
aF0
aF0
aF0
aF0
aF0
aF0
asS'iNa'
p5363
(lp5364
F0
aF0
aF0
aF0
aF0
aF0
aF0
asS'gmax'
p5365
(lp5366
F0.0001015
aF0.0001015
aF0.0001015
aF0.0001015
aF0.0001015
aF0.0001015
aF0.0001015
assS'Kv2'
p5367
(dp5368
S'm'
(lp5369
F0
aF0
aF0
aF0
aF0
aF0
aF0
asS'h'
(lp5370
F0
aF0
aF0
aF0
aF0
aF0
aF0
asS'iKv2'
p5371
(lp5372
F0
aF0
aF0
aF0
aF0
aF0
aF0
asS'gmax'
p5373
(lp5374
F0.0001
aF0.0001
aF0.0001
aF0.0001
aF0.0001
aF0.0001
aF0.0001
assS'Kv3'
p5375
(dp5376
S'h'
(lp5377
F0
aF0
aF0
aF0
aF0
aF0
aF0
asS'm'
(lp5378
F0
aF0
aF0
aF0
aF0
aF0
aF0
asS'iKv3'
p5379
(lp5380
F0
aF0
aF0
aF0
aF0
aF0
aF0
asS'gmax'
p5381
(lp5382
F0.001
aF0.001
aF0.001
aF0.001
aF0.001
aF0.001
aF0.001
assS'CaHVA'
p5383
(dp5384
S'iCaH'
p5385
(lp5386
F0
aF0
aF0
aF0
aF0
aF0
aF0
asS'm'
(lp5387
F0
aF0
aF0
aF0
aF0
aF0
aF0
asS'gmax'
p5388
(lp5389
F8.9999999999999992e-05
aF8.9999999999999992e-05
aF8.9999999999999992e-05
aF8.9999999999999992e-05
aF8.9999999999999992e-05
aF8.9999999999999992e-05
aF8.9999999999999992e-05
assS'NaF'
p5390
(dp5391
S'h'
(lp5392
F0
aF0
aF0
aF0
aF0
aF0
aF0
asS's'
(lp5393
F0
aF0
aF0
aF0
aF0
aF0
aF0
asS'm'
(lp5394
F0
aF0
aF0
aF0
aF0
aF0
aF0
asS'iNa'
p5395
(lp5396
F0
aF0
aF0
aF0
aF0
aF0
aF0
asS'gmax'
p5397
(lp5398
F0.035000000000000003
aF0.035000000000000003
aF0.035000000000000003
aF0.035000000000000003
aF0.035000000000000003
aF0.035000000000000003
aF0.035000000000000003
assS'HCN'
p5399
(dp5400
S'ih'
p5401
(lp5402
F0
aF0
aF0
aF0
aF0
aF0
aF0
asS'iHCN'
p5403
(lp5404
F0
aF0
aF0
aF0
aF0
aF0
aF0
asS'm'
(lp5405
F0
aF0
aF0
aF0
aF0
aF0
aF0
asS'gmax'
p5406
(lp5407
F0.0001
aF0.0001
aF0.0001
aF0.0001
aF0.0001
aF0.0001
aF0.0001
asssg205
g206
((ltRp5408
sg208
(dp5409
sg210
F174
sg211
(dp5410
g213
(lp5411
F1
aF1
aF1
aF1
aF1
aF1
aF1
asg215
F0
sg216
I23
sg217
(lp5412
(F-94.316001892089844
F-112.95600128173828
F30.729999542236328
F1
tp5413
a(F-94.350654602050781
F-112.97293853759766
F30.745922088623047
F1
tp5414
a(F-94.378936767578125
F-112.97525024414062
F30.758132934570312
F1
tp5415
a(F-94.40802001953125
F-112.98862457275391
F30.761846542358398
F1
tp5416
a(F-94.437232971191406
F-113.00288391113281
F30.761846542358398
F1
tp5417
a(F-94.467300415039062
F-113.00712585449219
F30.761846542358398
F1
tp5418
a(F-94.499595642089844
F-113.00830078125
F30.761852264404297
F1
tp5419
a(F-94.528358459472656
F-113.00331115722656
F30.776145935058594
F1
tp5420
a(F-94.557327270507812
F-113.00398254394531
F30.788734436035156
F1
tp5421
a(F-94.588554382324219
F-113.00361633300781
F30.792116165161133
F1
tp5422
a(F-94.612716674804688
F-113.02469635009766
F30.79539680480957
F1
tp5423
a(F-94.636627197265625
F-113.04645538330078
F30.79878044128418
F1
tp5424
a(F-94.66571044921875
F-113.05880737304688
F30.804580688476562
F1
tp5425
a(F-94.693893432617188
F-113.07251739501953
F30.804580688476562
F1
tp5426
a(F-94.720352172851562
F-113.08902740478516
F30.805957794189453
F1
tp5427
a(F-94.747024536132812
F-113.10144805908203
F30.809841156005859
F1
tp5428
a(F-94.77490234375
F-113.10958862304688
F30.819318771362305
F1
tp5429
a(F-94.8046875
F-113.11638641357422
F30.821647644042969
F1
tp5430
a(F-94.83416748046875
F-113.12588500976562
F30.823209762573242
F1
tp5431
a(F-94.858291625976562
F-113.14407348632812
F30.834434509277344
F1
tp5432
a(F-94.883613586425781
F-113.15670776367188
F30.837934494018555
F1
tp5433
a(F-94.909049987792969
F-113.16689300537109
F30.837934494018555
F1
tp5434
a(F-94.929481506347656
F-113.18475341796875
F30.838981628417969
F1
tp5435
a(F-94.952239990234375
F-113.18015289306641
F30.853481292724609
F1
tp5436
a(F-94.978553771972656
F-113.17375946044922
F30.858959197998047
F1
tp5437
a(F-95.005645751953125
F-113.17460632324219
F30.855775833129883
F1
tp5438
a(F-95.028678894042969
F-113.17813873291016
F30.848358154296875
F1
tp5439
a(F-95.047920227050781
F-113.17774963378906
F30.864294052124023
F1
tp5440
a(F-95.073532104492188
F-113.188232421875
F30.865945816040039
F1
tp5441
a(F-95.087730407714844
F-113.18705749511719
F30.886648178100586
F1
tp5442
a(F-95.107803344726562
F-113.18973541259766
F30.902620315551758
F1
tp5443
a(F-95.130630493164062
F-113.18351745605469
F30.910612106323242
F1
tp5444
a(F-95.149848937988281
F-113.18359375
F30.922748565673828
F1
tp5445
a(F-95.161117553710938
F-113.16619873046875
F30.926198959350586
F1
tp5446
a(F-95.179588317871094
F-113.15267944335938
F30.943609237670898
F1
tp5447
asS'L'
F1
sg222
F1
ssg223
S'__nrnsec_0x56510796c180'
p5448
sg225
g206
((ltRp5449
sa(dp5450
g58
(dp5451
S'na'
p5452
(dp5453
S'ena'
p5454
(lp5455
F50
asS'dina_dv_'
p5456
(lp5457
F0
asS'nai'
p5458
(lp5459
F10
asS'nao'
p5460
(lp5461
F140
asS'ina'
p5462
(lp5463
F0
asg72
F8
ssS'k'
(dp5464
S'ek'
p5465
(lp5466
F-90
asS'ki'
p5467
(lp5468
F54.399999999999999
asS'ko'
p5469
(lp5470
F2.5
asS'ik'
p5471
(lp5472
F0
asS'dik_dv_'
p5473
(lp5474
F0
asg72
F8
ssS'ca'
p5475
(dp5476
S'eca'
p5477
(lp5478
F132.45793416370091
asS'dica_dv_'
p5479
(lp5480
F0
asS'ica'
p5481
(lp5482
F0
asS'cai'
p5483
(lp5484
F5.0000000000000002e-05
asS'cao'
p5485
(lp5486
F2
asg72
F247
sssg96
S'GPe[0].dend[8]'
p5487
sg98
(lp5488
F2.3999999999999999
asg100
I1
sg101
(dp5489
S'pas'
p5490
(dp5491
S'i'
(lp5492
F0
asS'e'
(lp5493
F-60
asS'g'
(lp5494
F6.802721088435374e-05
assS'Kv4s'
p5495
(dp5496
S'm'
(lp5497
F0
asS'h'
(lp5498
F0
asS'iKv4s'
p5499
(lp5500
F0
asS'gmax'
p5501
(lp5502
F0.0060000000000000001
assS'Kv4f'
p5503
(dp5504
S'iKv4f'
p5505
(lp5506
F0
asS'h'
(lp5507
F0
asS'm'
(lp5508
F0
asS'gmax'
p5509
(lp5510
F0.0040000000000000001
assS'HCN2'
p5511
(dp5512
S'ih'
p5513
(lp5514
F0
asS'iHCN'
p5515
(lp5516
F0
asS'm'
(lp5517
F0
asS'gmax'
p5518
(lp5519
F0.00025000000000000001
assS'KCNQ'
p5520
(dp5521
S'iKCNQ'
p5522
(lp5523
F0
asS'm'
(lp5524
F0
asS'gmax'
p5525
(lp5526
F0.00020000000000000001
assS'SK'
p5527
(dp5528
S'iSK'
p5529
(lp5530
F0
asS'm'
(lp5531
F0
asS'gmax'
p5532
(lp5533
F4.0000000000000003e-05
assS'Calcium'
p5534
(dp5535
S'tau'
p5536
(lp5537
F1
asS'depth'
p5538
(lp5539
F1600000000000
asS'cai0'
p5540
(lp5541
F5.0000000000000002e-05
assS'NaP'
p5542
(dp5543
S'h'
(lp5544
F0
asS's'
(lp5545
F0
asS'm'
(lp5546
F0
asS'iNa'
p5547
(lp5548
F0
asS'gmax'
p5549
(lp5550
F0.0001015
assS'Kv2'
p5551
(dp5552
S'm'
(lp5553
F0
asS'h'
(lp5554
F0
asS'iKv2'
p5555
(lp5556
F0
asS'gmax'
p5557
(lp5558
F0.0001
assS'Kv3'
p5559
(dp5560
S'h'
(lp5561
F0
asS'm'
(lp5562
F0
asS'iKv3'
p5563
(lp5564
F0
asS'gmax'
p5565
(lp5566
F0.001
assS'CaHVA'
p5567
(dp5568
S'iCaH'
p5569
(lp5570
F0
asS'm'
(lp5571
F0
asS'gmax'
p5572
(lp5573
F4.4999999999999996e-05
assS'NaF'
p5574
(dp5575
S'h'
(lp5576
F0
asS's'
(lp5577
F0
asS'm'
(lp5578
F0
asS'iNa'
p5579
(lp5580
F0
asS'gmax'
p5581
(lp5582
F0.035000000000000003
assS'HCN'
p5583
(dp5584
S'ih'
p5585
(lp5586
F0
asS'iHCN'
p5587
(lp5588
F0
asS'm'
(lp5589
F0
asS'gmax'
p5590
(lp5591
F0.0001
asssg205
g206
((ltRp5592
sg208
(dp5593
sg210
F174
sg211
(dp5594
g213
(lp5595
F1
asg215
F0
sg216
I30
sg217
(lp5596
(F-197.08999633789062
F-84.669998168945312
F22.909999847412109
F1
tp5597
a(F-197.23149108886719
F-84.833808898925781
F22.917945861816406
F1
tp5598
a(F-197.38529968261719
F-84.945686340332031
F22.908193588256836
F1
tp5599
a(F-197.51861572265625
F-85.094253540039062
F22.866039276123047
F1
tp5600
a(F-197.63908386230469
F-85.241630554199219
F22.841548919677734
F1
tp5601
a(F-197.71563720703125
F-85.423149108886719
F22.844257354736328
F1
tp5602
asS'L'
F1
sg222
F1
ssg223
S'__nrnsec_0x56510796ba00'
p5603
sg225
g206
((ltRp5604
sa(dp5605
g58
(dp5606
S'na'
p5607
(dp5608
S'ena'
p5609
(lp5610
F50
asS'dina_dv_'
p5611
(lp5612
F0
asS'nai'
p5613
(lp5614
F10
asS'nao'
p5615
(lp5616
F140
asS'ina'
p5617
(lp5618
F0
asg72
F8
ssS'k'
(dp5619
S'ek'
p5620
(lp5621
F-90
asS'ki'
p5622
(lp5623
F54.399999999999999
asS'ko'
p5624
(lp5625
F2.5
asS'ik'
p5626
(lp5627
F0
asS'dik_dv_'
p5628
(lp5629
F0
asg72
F8
ssS'ca'
p5630
(dp5631
S'eca'
p5632
(lp5633
F132.45793416370091
asS'dica_dv_'
p5634
(lp5635
F0
asS'ica'
p5636
(lp5637
F0
asS'cai'
p5638
(lp5639
F5.0000000000000002e-05
asS'cao'
p5640
(lp5641
F2
asg72
F247
sssg96
S'GPe[0].dend[5]'
p5642
sg98
(lp5643
F2.3999999999999999
asg100
I1
sg101
(dp5644
S'pas'
p5645
(dp5646
S'i'
(lp5647
F0
asS'e'
(lp5648
F-60
asS'g'
(lp5649
F6.802721088435374e-05
assS'Kv4s'
p5650
(dp5651
S'm'
(lp5652
F0
asS'h'
(lp5653
F0
asS'iKv4s'
p5654
(lp5655
F0
asS'gmax'
p5656
(lp5657
F0.0060000000000000001
assS'Kv4f'
p5658
(dp5659
S'iKv4f'
p5660
(lp5661
F0
asS'h'
(lp5662
F0
asS'm'
(lp5663
F0
asS'gmax'
p5664
(lp5665
F0.0040000000000000001
assS'HCN2'
p5666
(dp5667
S'ih'
p5668
(lp5669
F0
asS'iHCN'
p5670
(lp5671
F0
asS'm'
(lp5672
F0
asS'gmax'
p5673
(lp5674
F0.00025000000000000001
assS'KCNQ'
p5675
(dp5676
S'iKCNQ'
p5677
(lp5678
F0
asS'm'
(lp5679
F0
asS'gmax'
p5680
(lp5681
F0.00020000000000000001
assS'SK'
p5682
(dp5683
S'iSK'
p5684
(lp5685
F0
asS'm'
(lp5686
F0
asS'gmax'
p5687
(lp5688
F4.0000000000000003e-05
assS'Calcium'
p5689
(dp5690
S'tau'
p5691
(lp5692
F1
asS'depth'
p5693
(lp5694
F1600000000000
asS'cai0'
p5695
(lp5696
F5.0000000000000002e-05
assS'NaP'
p5697
(dp5698
S'h'
(lp5699
F0
asS's'
(lp5700
F0
asS'm'
(lp5701
F0
asS'iNa'
p5702
(lp5703
F0
asS'gmax'
p5704
(lp5705
F0.0001015
assS'Kv2'
p5706
(dp5707
S'm'
(lp5708
F0
asS'h'
(lp5709
F0
asS'iKv2'
p5710
(lp5711
F0
asS'gmax'
p5712
(lp5713
F0.0001
assS'Kv3'
p5714
(dp5715
S'h'
(lp5716
F0
asS'm'
(lp5717
F0
asS'iKv3'
p5718
(lp5719
F0
asS'gmax'
p5720
(lp5721
F0.001
assS'CaHVA'
p5722
(dp5723
S'iCaH'
p5724
(lp5725
F0
asS'm'
(lp5726
F0
asS'gmax'
p5727
(lp5728
F4.4999999999999996e-05
assS'NaF'
p5729
(dp5730
S'h'
(lp5731
F0
asS's'
(lp5732
F0
asS'm'
(lp5733
F0
asS'iNa'
p5734
(lp5735
F0
asS'gmax'
p5736
(lp5737
F0.035000000000000003
assS'HCN'
p5738
(dp5739
S'ih'
p5740
(lp5741
F0
asS'iHCN'
p5742
(lp5743
F0
asS'm'
(lp5744
F0
asS'gmax'
p5745
(lp5746
F0.0001
asssg205
g206
((ltRp5747
sg208
(dp5748
sg210
F174
sg211
(dp5749
g213
(lp5750
F1
asg215
F0
sg216
I30
sg217
(lp5751
(F-197.08999633789062
F-84.669998168945312
F22.909999847412109
F1
tp5752
a(F-197.22885131835938
F-85.019218444824219
F22.827308654785156
F1
tp5753
a(F-197.20455932617188
F-85.270248413085938
F22.776699066162109
F1
tp5754
a(F-197.41658020019531
F-85.500518798828125
F22.950372695922852
F1
tp5755
asS'L'
F0.99999999999999989
sg222
F1
ssg223
S'__nrnsec_0x56510796b8e0'
p5756
sg225
g206
((ltRp5757
sa(dp5758
g58
(dp5759
S'na'
p5760
(dp5761
S'ena'
p5762
(lp5763
F50
aF50
aF50
asS'dina_dv_'
p5764
(lp5765
F0
aF0
aF0
asS'nai'
p5766
(lp5767
F10
aF10
aF10
asS'nao'
p5768
(lp5769
F140
aF140
aF140
asS'ina'
p5770
(lp5771
F0
aF0
aF0
asg72
F8
ssS'k'
(dp5772
S'ek'
p5773
(lp5774
F-90
aF-90
aF-90
asS'ki'
p5775
(lp5776
F54.399999999999999
aF54.399999999999999
aF54.399999999999999
asS'ko'
p5777
(lp5778
F2.5
aF2.5
aF2.5
asS'ik'
p5779
(lp5780
F0
aF0
aF0
asS'dik_dv_'
p5781
(lp5782
F0
aF0
aF0
asg72
F8
ssS'ca'
p5783
(dp5784
S'eca'
p5785
(lp5786
F132.45793416370091
aF132.45793416370091
aF132.45793416370091
asS'dica_dv_'
p5787
(lp5788
F0
aF0
aF0
asS'ica'
p5789
(lp5790
F0
aF0
aF0
asS'cai'
p5791
(lp5792
F5.0000000000000002e-05
aF5.0000000000000002e-05
aF5.0000000000000002e-05
asS'cao'
p5793
(lp5794
F2
aF2
aF2
asg72
F247
sssg96
S'GPe[0].dend[31]'
p5795
sg98
(lp5796
F2.3999999999999999
aF2.3999999999999999
aF2.3999999999999999
asg100
I3
sg101
(dp5797
S'pas'
p5798
(dp5799
S'i'
(lp5800
F0
aF0
aF0
asS'e'
(lp5801
F-60
aF-60
aF-60
asS'g'
(lp5802
F6.802721088435374e-05
aF6.802721088435374e-05
aF6.802721088435374e-05
assS'Kv4s'
p5803
(dp5804
S'm'
(lp5805
F0
aF0
aF0
asS'h'
(lp5806
F0
aF0
aF0
asS'iKv4s'
p5807
(lp5808
F0
aF0
aF0
asS'gmax'
p5809
(lp5810
F0.0060000000000000001
aF0.0060000000000000001
aF0.0060000000000000001
assS'Kv4f'
p5811
(dp5812
S'iKv4f'
p5813
(lp5814
F0
aF0
aF0
asS'h'
(lp5815
F0
aF0
aF0
asS'm'
(lp5816
F0
aF0
aF0
asS'gmax'
p5817
(lp5818
F0.0040000000000000001
aF0.0040000000000000001
aF0.0040000000000000001
assS'HCN2'
p5819
(dp5820
S'ih'
p5821
(lp5822
F0
aF0
aF0
asS'iHCN'
p5823
(lp5824
F0
aF0
aF0
asS'm'
(lp5825
F0
aF0
aF0
asS'gmax'
p5826
(lp5827
F0.00025000000000000001
aF0.00025000000000000001
aF0.00025000000000000001
assS'KCNQ'
p5828
(dp5829
S'iKCNQ'
p5830
(lp5831
F0
aF0
aF0
asS'm'
(lp5832
F0
aF0
aF0
asS'gmax'
p5833
(lp5834
F0.00020000000000000001
aF0.00020000000000000001
aF0.00020000000000000001
assS'SK'
p5835
(dp5836
S'iSK'
p5837
(lp5838
F0
aF0
aF0
asS'm'
(lp5839
F0
aF0
aF0
asS'gmax'
p5840
(lp5841
F4.0000000000000003e-05
aF4.0000000000000003e-05
aF4.0000000000000003e-05
assS'Calcium'
p5842
(dp5843
S'tau'
p5844
(lp5845
F1
aF1
aF1
asS'depth'
p5846
(lp5847
F1600000000000
aF1600000000000
aF1600000000000
asS'cai0'
p5848
(lp5849
F5.0000000000000002e-05
aF5.0000000000000002e-05
aF5.0000000000000002e-05
assS'NaP'
p5850
(dp5851
S'h'
(lp5852
F0
aF0
aF0
asS's'
(lp5853
F0
aF0
aF0
asS'm'
(lp5854
F0
aF0
aF0
asS'iNa'
p5855
(lp5856
F0
aF0
aF0
asS'gmax'
p5857
(lp5858
F0.0001015
aF0.0001015
aF0.0001015
assS'Kv2'
p5859
(dp5860
S'm'
(lp5861
F0
aF0
aF0
asS'h'
(lp5862
F0
aF0
aF0
asS'iKv2'
p5863
(lp5864
F0
aF0
aF0
asS'gmax'
p5865
(lp5866
F0.0001
aF0.0001
aF0.0001
assS'Kv3'
p5867
(dp5868
S'h'
(lp5869
F0
aF0
aF0
asS'm'
(lp5870
F0
aF0
aF0
asS'iKv3'
p5871
(lp5872
F0
aF0
aF0
asS'gmax'
p5873
(lp5874
F0.001
aF0.001
aF0.001
assS'CaHVA'
p5875
(dp5876
S'iCaH'
p5877
(lp5878
F0
aF0
aF0
asS'm'
(lp5879
F0
aF0
aF0
asS'gmax'
p5880
(lp5881
F8.9999999999999992e-05
aF8.9999999999999992e-05
aF8.9999999999999992e-05
assS'NaF'
p5882
(dp5883
S'h'
(lp5884
F0
aF0
aF0
asS's'
(lp5885
F0
aF0
aF0
asS'm'
(lp5886
F0
aF0
aF0
asS'iNa'
p5887
(lp5888
F0
aF0
aF0
asS'gmax'
p5889
(lp5890
F0.035000000000000003
aF0.035000000000000003
aF0.035000000000000003
assS'HCN'
p5891
(dp5892
S'ih'
p5893
(lp5894
F0
aF0
aF0
asS'iHCN'
p5895
(lp5896
F0
aF0
aF0
asS'm'
(lp5897
F0
aF0
aF0
asS'gmax'
p5898
(lp5899
F0.0001
aF0.0001
aF0.0001
asssg205
g206
((ltRp5900
sg208
(dp5901
sg210
F174
sg211
(dp5902
g213
(lp5903
F1
aF1
aF1
asg215
F0
sg216
I31
sg217
(lp5904
(F-122.7030029296875
F-165.3489990234375
F11.135000228881836
F1
tp5905
a(F-122.66437530517578
F-165.453125
F11.108343124389648
F1
tp5906
a(F-122.64994049072266
F-165.54920959472656
F11.069990158081055
F1
tp5907
a(F-122.64361572265625
F-165.64591979980469
F11.057621002197266
F1
tp5908
a(F-122.70295715332031
F-165.74900817871094
F11.034503936767578
F1
tp5909
a(F-122.69196319580078
F-165.85917663574219
F11.031847953796387
F1
tp5910
a(F-122.64340972900391
F-165.96067810058594
F11.031847953796387
F1
tp5911
a(F-122.56636810302734
F-166.02406311035156
F11.031847953796387
F1
tp5912
a(F-122.50120544433594
F-166.1219482421875
F11.031847953796387
F1
tp5913
a(F-122.38518524169922
F-166.15910339355469
F11.031847953796387
F1
tp5914
asS'L'
F1
sg222
F1
ssg223
S'__nrnsec_0x56510796c2a0'
p5915
sg225
g206
((ltRp5916
sa(dp5917
g58
(dp5918
S'na'
p5919
(dp5920
S'ena'
p5921
(lp5922
F50
asS'dina_dv_'
p5923
(lp5924
F0
asS'nai'
p5925
(lp5926
F10
asS'nao'
p5927
(lp5928
F140
asS'ina'
p5929
(lp5930
F0
asg72
F8
ssS'k'
(dp5931
S'ek'
p5932
(lp5933
F-90
asS'ki'
p5934
(lp5935
F54.399999999999999
asS'ko'
p5936
(lp5937
F2.5
asS'ik'
p5938
(lp5939
F0
asS'dik_dv_'
p5940
(lp5941
F0
asg72
F8
ssS'ca'
p5942
(dp5943
S'eca'
p5944
(lp5945
F132.45793416370091
asS'dica_dv_'
p5946
(lp5947
F0
asS'ica'
p5948
(lp5949
F0
asS'cai'
p5950
(lp5951
F5.0000000000000002e-05
asS'cao'
p5952
(lp5953
F2
asg72
F247
sssg96
S'GPe[0].dend[30]'
p5954
sg98
(lp5955
F2.3999999999999999
asg100
I1
sg101
(dp5956
S'pas'
p5957
(dp5958
S'i'
(lp5959
F0
asS'e'
(lp5960
F-60
asS'g'
(lp5961
F6.802721088435374e-05
assS'Kv4s'
p5962
(dp5963
S'm'
(lp5964
F0
asS'h'
(lp5965
F0
asS'iKv4s'
p5966
(lp5967
F0
asS'gmax'
p5968
(lp5969
F0.0060000000000000001
assS'Kv4f'
p5970
(dp5971
S'iKv4f'
p5972
(lp5973
F0
asS'h'
(lp5974
F0
asS'm'
(lp5975
F0
asS'gmax'
p5976
(lp5977
F0.0040000000000000001
assS'HCN2'
p5978
(dp5979
S'ih'
p5980
(lp5981
F0
asS'iHCN'
p5982
(lp5983
F0
asS'm'
(lp5984
F0
asS'gmax'
p5985
(lp5986
F0.00025000000000000001
assS'KCNQ'
p5987
(dp5988
S'iKCNQ'
p5989
(lp5990
F0
asS'm'
(lp5991
F0
asS'gmax'
p5992
(lp5993
F0.00020000000000000001
assS'SK'
p5994
(dp5995
S'iSK'
p5996
(lp5997
F0
asS'm'
(lp5998
F0
asS'gmax'
p5999
(lp6000
F4.0000000000000003e-05
assS'Calcium'
p6001
(dp6002
S'tau'
p6003
(lp6004
F1
asS'depth'
p6005
(lp6006
F1600000000000
asS'cai0'
p6007
(lp6008
F5.0000000000000002e-05
assS'NaP'
p6009
(dp6010
S'h'
(lp6011
F0
asS's'
(lp6012
F0
asS'm'
(lp6013
F0
asS'iNa'
p6014
(lp6015
F0
asS'gmax'
p6016
(lp6017
F0.0001015
assS'Kv2'
p6018
(dp6019
S'm'
(lp6020
F0
asS'h'
(lp6021
F0
asS'iKv2'
p6022
(lp6023
F0
asS'gmax'
p6024
(lp6025
F0.0001
assS'Kv3'
p6026
(dp6027
S'h'
(lp6028
F0
asS'm'
(lp6029
F0
asS'iKv3'
p6030
(lp6031
F0
asS'gmax'
p6032
(lp6033
F0.001
assS'CaHVA'
p6034
(dp6035
S'iCaH'
p6036
(lp6037
F0
asS'm'
(lp6038
F0
asS'gmax'
p6039
(lp6040
F8.9999999999999992e-05
assS'NaF'
p6041
(dp6042
S'h'
(lp6043
F0
asS's'
(lp6044
F0
asS'm'
(lp6045
F0
asS'iNa'
p6046
(lp6047
F0
asS'gmax'
p6048
(lp6049
F0.035000000000000003
assS'HCN'
p6050
(dp6051
S'ih'
p6052
(lp6053
F0
asS'iHCN'
p6054
(lp6055
F0
asS'm'
(lp6056
F0
asS'gmax'
p6057
(lp6058
F0.0001
asssg205
g206
((ltRp6059
sg208
(dp6060
sg210
F174
sg211
(dp6061
g213
(lp6062
F1
asg215
F0
sg216
I31
sg217
(lp6063
(F-122.7030029296875
F-165.3489990234375
F11.135000228881836
F1
tp6064
a(F-122.83142852783203
F-165.40333557128906
F11.113811492919922
F1
tp6065
a(F-122.95944213867188
F-165.45120239257812
F11.107898712158203
F1
tp6066
a(F-123.04790496826172
F-165.55239868164062
F11.107898712158203
F1
tp6067
a(F-123.03424072265625
F-165.67153930664062
F11.107898712158203
F1
tp6068
a(F-123.0286865234375
F-165.78643798828125
F11.107898712158203
F1
tp6069
a(F-123.06787109375
F-165.89533996582031
F11.108417510986328
F1
tp6070
a(F-123.11859893798828
F-165.98564147949219
F11.166951179504395
F1
tp6071
a(F-123.15781402587891
F-166.04072570800781
F11.263764381408691
F1
tp6072
asS'L'
F1
sg222
F1
ssg223
S'__nrnsec_0x56510796c240'
p6073
sg225
g206
((ltRp6074
sa(dp6075
g58
(dp6076
S'na'
p6077
(dp6078
S'ena'
p6079
(lp6080
F50
asS'dina_dv_'
p6081
(lp6082
F0
asS'nai'
p6083
(lp6084
F10
asS'nao'
p6085
(lp6086
F140
asS'ina'
p6087
(lp6088
F0
asg72
F8
ssS'k'
(dp6089
S'ek'
p6090
(lp6091
F-90
asS'ki'
p6092
(lp6093
F54.399999999999999
asS'ko'
p6094
(lp6095
F2.5
asS'ik'
p6096
(lp6097
F0
asS'dik_dv_'
p6098
(lp6099
F0
asg72
F8
ssS'ca'
p6100
(dp6101
S'eca'
p6102
(lp6103
F132.45793416370091
asS'dica_dv_'
p6104
(lp6105
F0
asS'ica'
p6106
(lp6107
F0
asS'cai'
p6108
(lp6109
F5.0000000000000002e-05
asS'cao'
p6110
(lp6111
F2
asg72
F247
sssg96
S'GPe[0].dend[7]'
p6112
sg98
(lp6113
F2.3999999999999999
asg100
I1
sg101
(dp6114
S'pas'
p6115
(dp6116
S'i'
(lp6117
F0
asS'e'
(lp6118
F-60
asS'g'
(lp6119
F6.802721088435374e-05
assS'Kv4s'
p6120
(dp6121
S'm'
(lp6122
F0
asS'h'
(lp6123
F0
asS'iKv4s'
p6124
(lp6125
F0
asS'gmax'
p6126
(lp6127
F0.0060000000000000001
assS'Kv4f'
p6128
(dp6129
S'iKv4f'
p6130
(lp6131
F0
asS'h'
(lp6132
F0
asS'm'
(lp6133
F0
asS'gmax'
p6134
(lp6135
F0.0040000000000000001
assS'HCN2'
p6136
(dp6137
S'ih'
p6138
(lp6139
F0
asS'iHCN'
p6140
(lp6141
F0
asS'm'
(lp6142
F0
asS'gmax'
p6143
(lp6144
F0.00025000000000000001
assS'KCNQ'
p6145
(dp6146
S'iKCNQ'
p6147
(lp6148
F0
asS'm'
(lp6149
F0
asS'gmax'
p6150
(lp6151
F0.00020000000000000001
assS'SK'
p6152
(dp6153
S'iSK'
p6154
(lp6155
F0
asS'm'
(lp6156
F0
asS'gmax'
p6157
(lp6158
F4.0000000000000003e-05
assS'Calcium'
p6159
(dp6160
S'tau'
p6161
(lp6162
F1
asS'depth'
p6163
(lp6164
F1600000000000
asS'cai0'
p6165
(lp6166
F5.0000000000000002e-05
assS'NaP'
p6167
(dp6168
S'h'
(lp6169
F0
asS's'
(lp6170
F0
asS'm'
(lp6171
F0
asS'iNa'
p6172
(lp6173
F0
asS'gmax'
p6174
(lp6175
F0.0001015
assS'Kv2'
p6176
(dp6177
S'm'
(lp6178
F0
asS'h'
(lp6179
F0
asS'iKv2'
p6180
(lp6181
F0
asS'gmax'
p6182
(lp6183
F0.0001
assS'Kv3'
p6184
(dp6185
S'h'
(lp6186
F0
asS'm'
(lp6187
F0
asS'iKv3'
p6188
(lp6189
F0
asS'gmax'
p6190
(lp6191
F0.001
assS'CaHVA'
p6192
(dp6193
S'iCaH'
p6194
(lp6195
F0
asS'm'
(lp6196
F0
asS'gmax'
p6197
(lp6198
F4.4999999999999996e-05
assS'NaF'
p6199
(dp6200
S'h'
(lp6201
F0
asS's'
(lp6202
F0
asS'm'
(lp6203
F0
asS'iNa'
p6204
(lp6205
F0
asS'gmax'
p6206
(lp6207
F0.035000000000000003
assS'HCN'
p6208
(dp6209
S'ih'
p6210
(lp6211
F0
asS'iHCN'
p6212
(lp6213
F0
asS'm'
(lp6214
F0
asS'gmax'
p6215
(lp6216
F0.0001
asssg205
g206
((ltRp6217
sg208
(dp6218
sg210
F174
sg211
(dp6219
g213
(lp6220
F1
asg215
F0
sg216
I34
sg217
(lp6221
(F-201.6199951171875
F-96.19000244140625
F23.469999313354492
F1
tp6222
a(F-201.3948974609375
F-96.646942138671875
F23.482650756835938
F1
tp6223
a(F-201.17929077148438
F-96.918525695800781
F23.135784149169922
F1
tp6224
asS'L'
F1
sg222
F1
ssg223
S'__nrnsec_0x56510796b9a0'
p6225
sg225
g206
((ltRp6226
sa(dp6227
g58
(dp6228
S'na'
p6229
(dp6230
S'ena'
p6231
(lp6232
F50
asS'dina_dv_'
p6233
(lp6234
F0
asS'nai'
p6235
(lp6236
F10
asS'nao'
p6237
(lp6238
F140
asS'ina'
p6239
(lp6240
F0
asg72
F8
ssS'k'
(dp6241
S'ek'
p6242
(lp6243
F-90
asS'ki'
p6244
(lp6245
F54.399999999999999
asS'ko'
p6246
(lp6247
F2.5
asS'ik'
p6248
(lp6249
F0
asS'dik_dv_'
p6250
(lp6251
F0
asg72
F8
ssS'ca'
p6252
(dp6253
S'eca'
p6254
(lp6255
F132.45793416370091
asS'dica_dv_'
p6256
(lp6257
F0
asS'ica'
p6258
(lp6259
F0
asS'cai'
p6260
(lp6261
F5.0000000000000002e-05
asS'cao'
p6262
(lp6263
F2
asg72
F247
sssg96
S'GPe[0].dend[6]'
p6264
sg98
(lp6265
F2.3999999999999999
asg100
I1
sg101
(dp6266
S'pas'
p6267
(dp6268
S'i'
(lp6269
F0
asS'e'
(lp6270
F-60
asS'g'
(lp6271
F6.802721088435374e-05
assS'Kv4s'
p6272
(dp6273
S'm'
(lp6274
F0
asS'h'
(lp6275
F0
asS'iKv4s'
p6276
(lp6277
F0
asS'gmax'
p6278
(lp6279
F0.0060000000000000001
assS'Kv4f'
p6280
(dp6281
S'iKv4f'
p6282
(lp6283
F0
asS'h'
(lp6284
F0
asS'm'
(lp6285
F0
asS'gmax'
p6286
(lp6287
F0.0040000000000000001
assS'HCN2'
p6288
(dp6289
S'ih'
p6290
(lp6291
F0
asS'iHCN'
p6292
(lp6293
F0
asS'm'
(lp6294
F0
asS'gmax'
p6295
(lp6296
F0.00025000000000000001
assS'KCNQ'
p6297
(dp6298
S'iKCNQ'
p6299
(lp6300
F0
asS'm'
(lp6301
F0
asS'gmax'
p6302
(lp6303
F0.00020000000000000001
assS'SK'
p6304
(dp6305
S'iSK'
p6306
(lp6307
F0
asS'm'
(lp6308
F0
asS'gmax'
p6309
(lp6310
F4.0000000000000003e-05
assS'Calcium'
p6311
(dp6312
S'tau'
p6313
(lp6314
F1
asS'depth'
p6315
(lp6316
F1600000000000
asS'cai0'
p6317
(lp6318
F5.0000000000000002e-05
assS'NaP'
p6319
(dp6320
S'h'
(lp6321
F0
asS's'
(lp6322
F0
asS'm'
(lp6323
F0
asS'iNa'
p6324
(lp6325
F0
asS'gmax'
p6326
(lp6327
F0.0001015
assS'Kv2'
p6328
(dp6329
S'm'
(lp6330
F0
asS'h'
(lp6331
F0
asS'iKv2'
p6332
(lp6333
F0
asS'gmax'
p6334
(lp6335
F0.0001
assS'Kv3'
p6336
(dp6337
S'h'
(lp6338
F0
asS'm'
(lp6339
F0
asS'iKv3'
p6340
(lp6341
F0
asS'gmax'
p6342
(lp6343
F0.001
assS'CaHVA'
p6344
(dp6345
S'iCaH'
p6346
(lp6347
F0
asS'm'
(lp6348
F0
asS'gmax'
p6349
(lp6350
F4.4999999999999996e-05
assS'NaF'
p6351
(dp6352
S'h'
(lp6353
F0
asS's'
(lp6354
F0
asS'm'
(lp6355
F0
asS'iNa'
p6356
(lp6357
F0
asS'gmax'
p6358
(lp6359
F0.035000000000000003
assS'HCN'
p6360
(dp6361
S'ih'
p6362
(lp6363
F0
asS'iHCN'
p6364
(lp6365
F0
asS'm'
(lp6366
F0
asS'gmax'
p6367
(lp6368
F0.0001
asssg205
g206
((ltRp6369
sg208
(dp6370
sg210
F174
sg211
(dp6371
g213
(lp6372
F1
asg215
F0
sg216
I34
sg217
(lp6373
(F-201.6199951171875
F-96.19000244140625
F23.469999313354492
F1
tp6374
a(F-201.16062927246094
F-96.299720764160156
F23.434780120849609
F1
tp6375
a(F-200.63624572753906
F-96.345779418945312
F23.432748794555664
F1
tp6376
asS'L'
F0.99999999999999989
sg222
F1
ssg223
S'__nrnsec_0x56510796b940'
p6377
sg225
g206
((ltRp6378
sa(dp6379
g58
(dp6380
S'na'
p6381
(dp6382
S'ena'
p6383
(lp6384
F50
asS'dina_dv_'
p6385
(lp6386
F0
asS'nai'
p6387
(lp6388
F10
asS'nao'
p6389
(lp6390
F140
asS'ina'
p6391
(lp6392
F0
asg72
F8
ssS'k'
(dp6393
S'ek'
p6394
(lp6395
F-90
asS'ki'
p6396
(lp6397
F54.399999999999999
asS'ko'
p6398
(lp6399
F2.5
asS'ik'
p6400
(lp6401
F0
asS'dik_dv_'
p6402
(lp6403
F0
asg72
F8
ssS'ca'
p6404
(dp6405
S'eca'
p6406
(lp6407
F132.45793416370091
asS'dica_dv_'
p6408
(lp6409
F0
asS'ica'
p6410
(lp6411
F0
asS'cai'
p6412
(lp6413
F5.0000000000000002e-05
asS'cao'
p6414
(lp6415
F2
asg72
F247
sssg96
S'GPe[0].dend[33]'
p6416
sg98
(lp6417
F2.3999999999999999
asg100
I1
sg101
(dp6418
S'pas'
p6419
(dp6420
S'i'
(lp6421
F0
asS'e'
(lp6422
F-60
asS'g'
(lp6423
F6.802721088435374e-05
assS'Kv4s'
p6424
(dp6425
S'm'
(lp6426
F0
asS'h'
(lp6427
F0
asS'iKv4s'
p6428
(lp6429
F0
asS'gmax'
p6430
(lp6431
F0.0060000000000000001
assS'Kv4f'
p6432
(dp6433
S'iKv4f'
p6434
(lp6435
F0
asS'h'
(lp6436
F0
asS'm'
(lp6437
F0
asS'gmax'
p6438
(lp6439
F0.0040000000000000001
assS'HCN2'
p6440
(dp6441
S'ih'
p6442
(lp6443
F0
asS'iHCN'
p6444
(lp6445
F0
asS'm'
(lp6446
F0
asS'gmax'
p6447
(lp6448
F0.00025000000000000001
assS'KCNQ'
p6449
(dp6450
S'iKCNQ'
p6451
(lp6452
F0
asS'm'
(lp6453
F0
asS'gmax'
p6454
(lp6455
F0.00020000000000000001
assS'SK'
p6456
(dp6457
S'iSK'
p6458
(lp6459
F0
asS'm'
(lp6460
F0
asS'gmax'
p6461
(lp6462
F4.0000000000000003e-05
assS'Calcium'
p6463
(dp6464
S'tau'
p6465
(lp6466
F1
asS'depth'
p6467
(lp6468
F1600000000000
asS'cai0'
p6469
(lp6470
F5.0000000000000002e-05
assS'NaP'
p6471
(dp6472
S'h'
(lp6473
F0
asS's'
(lp6474
F0
asS'm'
(lp6475
F0
asS'iNa'
p6476
(lp6477
F0
asS'gmax'
p6478
(lp6479
F0.0001015
assS'Kv2'
p6480
(dp6481
S'm'
(lp6482
F0
asS'h'
(lp6483
F0
asS'iKv2'
p6484
(lp6485
F0
asS'gmax'
p6486
(lp6487
F0.0001
assS'Kv3'
p6488
(dp6489
S'h'
(lp6490
F0
asS'm'
(lp6491
F0
asS'iKv3'
p6492
(lp6493
F0
asS'gmax'
p6494
(lp6495
F0.001
assS'CaHVA'
p6496
(dp6497
S'iCaH'
p6498
(lp6499
F0
asS'm'
(lp6500
F0
asS'gmax'
p6501
(lp6502
F8.9999999999999992e-05
assS'NaF'
p6503
(dp6504
S'h'
(lp6505
F0
asS's'
(lp6506
F0
asS'm'
(lp6507
F0
asS'iNa'
p6508
(lp6509
F0
asS'gmax'
p6510
(lp6511
F0.035000000000000003
assS'HCN'
p6512
(dp6513
S'ih'
p6514
(lp6515
F0
asS'iHCN'
p6516
(lp6517
F0
asS'm'
(lp6518
F0
asS'gmax'
p6519
(lp6520
F0.0001
asssg205
g206
((ltRp6521
sg208
(dp6522
sg210
F174
sg211
(dp6523
g213
(lp6524
F1
asg215
F0
sg216
I35
sg217
(lp6525
(F-107.62100219726562
F-203.79200744628906
F6.2399997711181641
F1
tp6526
a(F-107.33253479003906
F-203.92149353027344
F6.275029182434082
F1
tp6527
a(F-107.00757598876953
F-203.94575500488281
F6.3399167060852051
F1
tp6528
a(F-106.68125915527344
F-203.98272705078125
F6.4598164558410645
F1
tp6529
asS'L'
F1
sg222
F1
ssg223
S'__nrnsec_0x56510796c360'
p6530
sg225
g206
((ltRp6531
sa(dp6532
g58
(dp6533
S'na'
p6534
(dp6535
S'ena'
p6536
(lp6537
F50
asS'dina_dv_'
p6538
(lp6539
F0
asS'nai'
p6540
(lp6541
F10
asS'nao'
p6542
(lp6543
F140
asS'ina'
p6544
(lp6545
F0
asg72
F8
ssS'k'
(dp6546
S'ek'
p6547
(lp6548
F-90
asS'ki'
p6549
(lp6550
F54.399999999999999
asS'ko'
p6551
(lp6552
F2.5
asS'ik'
p6553
(lp6554
F0
asS'dik_dv_'
p6555
(lp6556
F0
asg72
F8
ssS'ca'
p6557
(dp6558
S'eca'
p6559
(lp6560
F132.45793416370091
asS'dica_dv_'
p6561
(lp6562
F0
asS'ica'
p6563
(lp6564
F0
asS'cai'
p6565
(lp6566
F5.0000000000000002e-05
asS'cao'
p6567
(lp6568
F2
asg72
F247
sssg96
S'GPe[0].dend[32]'
p6569
sg98
(lp6570
F2.3999999999999999
asg100
I1
sg101
(dp6571
S'pas'
p6572
(dp6573
S'i'
(lp6574
F0
asS'e'
(lp6575
F-60
asS'g'
(lp6576
F6.802721088435374e-05
assS'Kv4s'
p6577
(dp6578
S'm'
(lp6579
F0
asS'h'
(lp6580
F0
asS'iKv4s'
p6581
(lp6582
F0
asS'gmax'
p6583
(lp6584
F0.0060000000000000001
assS'Kv4f'
p6585
(dp6586
S'iKv4f'
p6587
(lp6588
F0
asS'h'
(lp6589
F0
asS'm'
(lp6590
F0
asS'gmax'
p6591
(lp6592
F0.0040000000000000001
assS'HCN2'
p6593
(dp6594
S'ih'
p6595
(lp6596
F0
asS'iHCN'
p6597
(lp6598
F0
asS'm'
(lp6599
F0
asS'gmax'
p6600
(lp6601
F0.00025000000000000001
assS'KCNQ'
p6602
(dp6603
S'iKCNQ'
p6604
(lp6605
F0
asS'm'
(lp6606
F0
asS'gmax'
p6607
(lp6608
F0.00020000000000000001
assS'SK'
p6609
(dp6610
S'iSK'
p6611
(lp6612
F0
asS'm'
(lp6613
F0
asS'gmax'
p6614
(lp6615
F4.0000000000000003e-05
assS'Calcium'
p6616
(dp6617
S'tau'
p6618
(lp6619
F1
asS'depth'
p6620
(lp6621
F1600000000000
asS'cai0'
p6622
(lp6623
F5.0000000000000002e-05
assS'NaP'
p6624
(dp6625
S'h'
(lp6626
F0
asS's'
(lp6627
F0
asS'm'
(lp6628
F0
asS'iNa'
p6629
(lp6630
F0
asS'gmax'
p6631
(lp6632
F0.0001015
assS'Kv2'
p6633
(dp6634
S'm'
(lp6635
F0
asS'h'
(lp6636
F0
asS'iKv2'
p6637
(lp6638
F0
asS'gmax'
p6639
(lp6640
F0.0001
assS'Kv3'
p6641
(dp6642
S'h'
(lp6643
F0
asS'm'
(lp6644
F0
asS'iKv3'
p6645
(lp6646
F0
asS'gmax'
p6647
(lp6648
F0.001
assS'CaHVA'
p6649
(dp6650
S'iCaH'
p6651
(lp6652
F0
asS'm'
(lp6653
F0
asS'gmax'
p6654
(lp6655
F8.9999999999999992e-05
assS'NaF'
p6656
(dp6657
S'h'
(lp6658
F0
asS's'
(lp6659
F0
asS'm'
(lp6660
F0
asS'iNa'
p6661
(lp6662
F0
asS'gmax'
p6663
(lp6664
F0.035000000000000003
assS'HCN'
p6665
(dp6666
S'ih'
p6667
(lp6668
F0
asS'iHCN'
p6669
(lp6670
F0
asS'm'
(lp6671
F0
asS'gmax'
p6672
(lp6673
F0.0001
asssg205
g206
((ltRp6674
sg208
(dp6675
sg210
F174
sg211
(dp6676
g213
(lp6677
F1
asg215
F0
sg216
I35
sg217
(lp6678
(F-107.62100219726562
F-203.79200744628906
F6.2399997711181641
F1
tp6679
a(F-107.54254913330078
F-203.99368286132812
F6.2665786743164062
F1
tp6680
a(F-107.53535461425781
F-204.19602966308594
F6.2785506248474121
F1
tp6681
a(F-107.50380706787109
F-204.37734985351562
F6.322296142578125
F1
tp6682
a(F-107.39564514160156
F-204.52706909179688
F6.3606963157653809
F1
tp6683
a(F-107.35694885253906
F-204.72463989257812
F6.3606963157653809
F1
tp6684
asS'L'
F1
sg222
F1
ssg223
S'__nrnsec_0x56510796c300'
p6685
sg225
g206
((ltRp6686
sasS'description'
p6687
S'Gunay (2008) GPe cell, axonless'
p6688
sS'metadata'
p6689
Ns.