(dp1
S'cell_sectionlists'
p2
(dp3
S'basal'
p4
(lp5
S'zipB4'
p6
aS'zipA0'
p7
aS'zipB0'
p8
aS'SThcell[0].dend0[1]'
p9
aS'zipA5'
p10
aS'zipB6'
p11
aS'zipC3'
p12
aS'zipA1'
p13
aS'zipB5'
p14
aS'zipC2'
p15
aS'zipA3'
p16
aS'SThcell[0].dend0[2]'
p17
aS'SThcell[0].dend0[0]'
p18
aS'zipB3'
p19
aS'zipB1'
p20
aS'zipC4'
p21
aS'zipB2'
p22
aS'zipA2'
p23
aS'SThcell[0].dend1[0]'
p24
aS'zipA6'
p25
aS'zipC0'
p26
aS'zipA4'
p27
aS'zipC5'
p28
aS'zipC6'
p29
aS'zipC1'
p30
asS'axonal'
p31
(lp32
sS'somatic'
p33
(lp34
S'SThcell[0].soma'
p35
assS'section_data'
p36
(lp37
(dp38
S'ions'
p39
(dp40
S'na'
p41
(dp42
S'ena'
p43
(lp44
F50
asS'dina_dv_'
p45
(lp46
F0
asS'nai'
p47
(lp48
F10
asS'nao'
p49
(lp50
F140
asS'ina'
p51
(lp52
F0
asS'ion_style'
p53
F53
ssS'k'
(dp54
S'ek'
p55
(lp56
F-77
asS'ki'
p57
(lp58
F54.399999999999999
asS'ko'
p59
(lp60
F2.5
asS'ik'
p61
(lp62
F0
asS'dik_dv_'
p63
(lp64
F0
asg53
F53
ssS'ca'
p65
(dp66
S'eca'
p67
(lp68
F132.45793416370091
asS'dica_dv_'
p69
(lp70
F0
asS'ica'
p71
(lp72
F0
asS'cai'
p73
(lp74
F5.0000000000000002e-05
asS'cao'
p75
(lp76
F2
asg53
F247
sssS'name'
p77
S'SThcell[0].soma'
p78
sS'cm'
p79
(lp80
F1
asS'nseg'
p81
I1
sS'density_mechs'
p82
(dp83
S'Cacum'
p84
(dp85
sS'HVA'
p86
(dp87
S'gcaL'
p88
(lp89
F0.00095
asS'gcaN'
p90
(lp91
F0.0011539
asS'h'
(lp92
F0
asS'q'
(lp93
F0
asS'iNCa'
p94
(lp95
F0
asS'u'
(lp96
F0
asS'iLCa'
p97
(lp98
F0
asS'o_L'
p99
(lp100
F0
asS'o_N'
p101
(lp102
F0
assS'Na'
p103
(dp104
S'h'
(lp105
F0
asS'gna'
p106
(lp107
F0.01483419823
asS'm'
(lp108
F0
asS'ina'
p109
(lp110
F0
asS'o'
(lp111
F0
assS'STh'
p112
(dp113
S'epas'
p114
(lp115
F-58.447699999999998
asS'gpas'
p116
(lp117
F7.8411200000000006e-05
asS'ipas'
p118
(lp119
F0
assS'NaL'
p120
(dp121
S'inaL'
p122
(lp123
F0
asS'gna'
p124
(lp125
F1.108670852e-05
assS'CaT'
p126
(dp127
S'd'
(lp128
F0
asS'iCaT'
p129
(lp130
F0
asS'o'
(lp131
F0
asS's'
(lp132
F0
asS'r'
(lp133
F0
asS'gcaT'
p134
(lp135
F0
assS'Ih'
p136
(dp137
S'ih'
p138
(lp139
F0
asS'gk'
p140
(lp141
F0.0010058999999999999
asS'f'
(lp142
F0
assS'Kv31'
p143
(dp144
S'p'
(lp145
F0
asS'ik'
p146
(lp147
F0
asS'gk'
p148
(lp149
F0.0134086
assS'sKCa'
p150
(dp151
S'isKCa'
p152
(lp153
F0
asS'gk'
p154
(lp155
F6.8399999999999996e-05
asS'w'
(lp156
F0
assS'KDR'
p157
(dp158
S'ik'
p159
(lp160
F0
asS'gk'
p161
(lp162
F0.0038428999999999998
asS'n'
(lp163
F0
asssS'regions'
p164
c__builtin__
set
p165
((ltRp166
sS'point_processes'
p167
(dp168
S'IClamp'
p169
(lp170
S'IClamp[2]'
p171
aS'IClamp[1]'
p172
aS'IClamp[0]'
p173
assS'Ra'
p174
F150.22399999999999
sS'morphology'
p175
(dp176
S'diam'
p177
(lp178
F18.311199999999999
asS'section_orientation'
p179
F0
sS'parent_idx'
p180
I-1
sS'pts3d'
p181
(lp182
sS'L'
F18.800000000000001
sS'parent_loc'
p183
I-1
ssS'hoc_internal_name'
p184
S'__nrnsec_0x55ea164b3b00'
p185
sS'species'
p186
g165
((ltRp187
sa(dp188
g39
(dp189
S'na'
p190
(dp191
S'ena'
p192
(lp193
F50
aF50
asS'dina_dv_'
p194
(lp195
F0
aF0
asS'nai'
p196
(lp197
F10
aF10
asS'nao'
p198
(lp199
F140
aF140
asS'ina'
p200
(lp201
F0
aF0
asg53
F53
ssS'k'
(dp202
S'ek'
p203
(lp204
F-77
aF-77
asS'ki'
p205
(lp206
F54.399999999999999
aF54.399999999999999
asS'ko'
p207
(lp208
F2.5
aF2.5
asS'ik'
p209
(lp210
F0
aF0
asS'dik_dv_'
p211
(lp212
F0
aF0
asg53
F53
ssS'ca'
p213
(dp214
S'eca'
p215
(lp216
F132.45793416370091
aF132.45793416370091
asS'dica_dv_'
p217
(lp218
F0
aF0
asS'ica'
p219
(lp220
F0
aF0
asS'cai'
p221
(lp222
F5.0000000000000002e-05
aF5.0000000000000002e-05
asS'cao'
p223
(lp224
F2
aF2
asg53
F247
sssg77
S'SThcell[0].dend1[0]'
p225
sg79
(lp226
F1
aF1
asg81
I2
sg82
(dp227
S'Cacum'
p228
(dp229
sS'HVA'
p230
(dp231
S'gcaL'
p232
(lp233
F0.0001
aF0.0001
asS'gcaN'
p234
(lp235
F0.0016000000000000001
aF0.0014
asS'h'
(lp236
F0
aF0
asS'q'
(lp237
F0
aF0
asS'iNCa'
p238
(lp239
F0
aF0
asS'u'
(lp240
F0
aF0
asS'iLCa'
p241
(lp242
F0
aF0
asS'o_L'
p243
(lp244
F0
aF0
asS'o_N'
p245
(lp246
F0
aF0
assS'Na'
p247
(dp248
S'h'
(lp249
F0
aF0
asS'gna'
p250
(lp251
F9.9999999999999995e-08
aF9.9999999999999995e-08
asS'm'
(lp252
F0
aF0
asS'ina'
p253
(lp254
F0
aF0
asS'o'
(lp255
F0
aF0
assS'STh'
p256
(dp257
S'epas'
p258
(lp259
F-58.447699999999998
aF-58.447699999999998
asS'gpas'
p260
(lp261
F7.8411200000000006e-05
aF7.8411200000000006e-05
asS'ipas'
p262
(lp263
F0
aF0
assS'NaL'
p264
(dp265
S'inaL'
p266
(lp267
F0
aF0
asS'gna'
p268
(lp269
F8.1000000000000004e-06
aF8.1000000000000004e-06
assS'CaT'
p270
(dp271
S'd'
(lp272
F0
aF0
asS'iCaT'
p273
(lp274
F0
aF0
asS'o'
(lp275
F0
aF0
asS's'
(lp276
F0
aF0
asS'r'
(lp277
F0
aF0
asS'gcaT'
p278
(lp279
F0.0011999999999999999
aF0.0014
assS'Ih'
p280
(dp281
S'ih'
p282
(lp283
F0
aF0
asS'gk'
p284
(lp285
F0
aF0
asS'f'
(lp286
F0
aF0
assS'Kv31'
p287
(dp288
S'p'
(lp289
F0
aF0
asS'ik'
p290
(lp291
F0
aF0
asS'gk'
p292
(lp293
F0.0064999999999999997
aF0.0047999999999999996
assS'sKCa'
p294
(dp295
S'isKCa'
p296
(lp297
F0
aF0
asS'gk'
p298
(lp299
F0
aF0
asS'w'
(lp300
F0
aF0
assS'KDR'
p301
(dp302
S'ik'
p303
(lp304
F0
aF0
asS'gk'
p305
(lp306
F0
aF0
asS'n'
(lp307
F0
aF0
asssg164
g165
((ltRp308
sg167
(dp309
sg174
F150.22399999999999
sg175
(dp310
g177
(lp311
F1.948
aF1.948
asg179
F0
sg180
I0
sg181
(lp312
sS'L'
F40
sg183
F0
ssg184
S'__nrnsec_0x55ea164b4400'
p313
sg186
g165
((ltRp314
sa(dp315
g39
(dp316
S'na'
p317
(dp318
S'ena'
p319
(lp320
F50
aF50
asS'dina_dv_'
p321
(lp322
F0
aF0
asS'nai'
p323
(lp324
F10
aF10
asS'nao'
p325
(lp326
F140
aF140
asS'ina'
p327
(lp328
F0
aF0
asg53
F53
ssS'k'
(dp329
S'ek'
p330
(lp331
F-77
aF-77
asS'ki'
p332
(lp333
F54.399999999999999
aF54.399999999999999
asS'ko'
p334
(lp335
F2.5
aF2.5
asS'ik'
p336
(lp337
F0
aF0
asS'dik_dv_'
p338
(lp339
F0
aF0
asg53
F53
ssS'ca'
p340
(dp341
S'eca'
p342
(lp343
F132.45793416370091
aF132.45793416370091
asS'dica_dv_'
p344
(lp345
F0
aF0
asS'ica'
p346
(lp347
F0
aF0
asS'cai'
p348
(lp349
F5.0000000000000002e-05
aF5.0000000000000002e-05
asS'cao'
p350
(lp351
F2
aF2
asg53
F247
sssg77
S'SThcell[0].dend0[0]'
p352
sg79
(lp353
F1
aF1
asg81
I2
sg82
(dp354
S'Cacum'
p355
(dp356
sS'HVA'
p357
(dp358
S'gcaL'
p359
(lp360
F0.0001
aF0.0001
asS'gcaN'
p361
(lp362
F0.0016999999999999999
aF0.0016000000000000001
asS'h'
(lp363
F0
aF0
asS'q'
(lp364
F0
aF0
asS'iNCa'
p365
(lp366
F0
aF0
asS'u'
(lp367
F0
aF0
asS'iLCa'
p368
(lp369
F0
aF0
asS'o_L'
p370
(lp371
F0
aF0
asS'o_N'
p372
(lp373
F0
aF0
assS'Na'
p374
(dp375
S'h'
(lp376
F0
aF0
asS'gna'
p377
(lp378
F9.9999999999999995e-08
aF9.9999999999999995e-08
asS'm'
(lp379
F0
aF0
asS'ina'
p380
(lp381
F0
aF0
asS'o'
(lp382
F0
aF0
assS'STh'
p383
(dp384
S'epas'
p385
(lp386
F-58.447699999999998
aF-58.447699999999998
asS'gpas'
p387
(lp388
F7.8411200000000006e-05
aF7.8411200000000006e-05
asS'ipas'
p389
(lp390
F0
aF0
assS'NaL'
p391
(dp392
S'inaL'
p393
(lp394
F0
aF0
asS'gna'
p395
(lp396
F8.1000000000000004e-06
aF8.1000000000000004e-06
assS'CaT'
p397
(dp398
S'd'
(lp399
F0
aF0
asS'iCaT'
p400
(lp401
F0
aF0
asS'o'
(lp402
F0
aF0
asS's'
(lp403
F0
aF0
asS'r'
(lp404
F0
aF0
asS'gcaT'
p405
(lp406
F0.0011999999999999999
aF0.0011999999999999999
assS'Ih'
p407
(dp408
S'ih'
p409
(lp410
F0
aF0
asS'gk'
p411
(lp412
F0
aF0
asS'f'
(lp413
F0
aF0
assS'Kv31'
p414
(dp415
S'p'
(lp416
F0
aF0
asS'ik'
p417
(lp418
F0
aF0
asS'gk'
p419
(lp420
F0.0071000000000000004
aF0.0067000000000000002
assS'sKCa'
p421
(dp422
S'isKCa'
p423
(lp424
F0
aF0
asS'gk'
p425
(lp426
F0
aF0
asS'w'
(lp427
F0
aF0
assS'KDR'
p428
(dp429
S'ik'
p430
(lp431
F0
aF0
asS'gk'
p432
(lp433
F0
aF0
asS'n'
(lp434
F0
aF0
asssg164
g165
((ltRp435
sg167
(dp436
sg174
F150.22399999999999
sg175
(dp437
g177
(lp438
F3.0973000000000002
aF3.0973000000000002
asg179
F0
sg180
I0
sg181
(lp439
sS'L'
F10
sg183
F1
ssg184
S'__nrnsec_0x55ea164b3b60'
p440
sg186
g165
((ltRp441
sa(dp442
g39
(dp443
S'na'
p444
(dp445
S'ena'
p446
(lp447
F50
asS'dina_dv_'
p448
(lp449
F0
asS'nai'
p450
(lp451
F10
asS'nao'
p452
(lp453
F140
asS'ina'
p454
(lp455
F0
asg53
F53
ssS'k'
(dp456
S'ek'
p457
(lp458
F-77
asS'ki'
p459
(lp460
F54.399999999999999
asS'ko'
p461
(lp462
F2.5
asS'ik'
p463
(lp464
F0
asS'dik_dv_'
p465
(lp466
F0
asg53
F53
ssS'ca'
p467
(dp468
S'eca'
p469
(lp470
F132.45793416370091
asS'dica_dv_'
p471
(lp472
F0
asS'ica'
p473
(lp474
F0
asS'cai'
p475
(lp476
F5.0000000000000002e-05
asS'cao'
p477
(lp478
F2
asg53
F247
sssg77
S'zipA0'
p479
sg79
(lp480
F1.5259187131733758
asg81
I1
sg82
(dp481
S'Cacum'
p482
(dp483
sS'HVA'
p484
(dp485
S'gcaL'
p486
(lp487
F0.00015259187131733758
asS'gcaN'
p488
(lp489
F0.0016637526374474172
asS'h'
(lp490
F0
asS'q'
(lp491
F0
asS'iNCa'
p492
(lp493
F0
asS'u'
(lp494
F0
asS'iLCa'
p495
(lp496
F0
asS'o_L'
p497
(lp498
F0
asS'o_N'
p499
(lp500
F0
assS'Na'
p501
(dp502
S'h'
(lp503
F0
asS'gna'
p504
(lp505
F1.5259187131733756e-07
asS'm'
(lp506
F0
asS'ina'
p507
(lp508
F0
asS'o'
(lp509
F0
assS'STh'
p510
(dp511
S'epas'
p512
(lp513
F-58.447699999999998
asS'gpas'
p514
(lp515
F0.00011964911740238024
asS'ipas'
p516
(lp517
F0
assS'NaL'
p518
(dp519
S'inaL'
p520
(lp521
F0
asS'gna'
p522
(lp523
F1.2359941576704344e-05
assS'CaT'
p524
(dp525
S'd'
(lp526
F0
asS'iCaT'
p527
(lp528
F0
asS'o'
(lp529
F0
asS's'
(lp530
F0
asS'r'
(lp531
F0
asS'gcaT'
p532
(lp533
F0.0027033264716370504
assS'Ih'
p534
(dp535
S'ih'
p536
(lp537
F0
asS'gk'
p538
(lp539
F0
asS'f'
(lp540
F0
assS'Kv31'
p541
(dp542
S'p'
(lp543
F0
asS'ik'
p544
(lp545
F0
asS'gk'
p546
(lp547
F0.0029416261380501591
assS'sKCa'
p548
(dp549
S'isKCa'
p550
(lp551
F0
asS'gk'
p552
(lp553
F0
asS'w'
(lp554
F0
assS'KDR'
p555
(dp556
S'ik'
p557
(lp558
F0
asS'gk'
p559
(lp560
F0.00015259187131733758
asS'n'
(lp561
F0
asssg164
g165
((ltRp562
sg167
(dp563
sg174
F150.22399999999999
sg175
(dp564
g177
(lp565
F1.690207989280565
asg179
F0
sg180
I1
sg181
(lp566
sS'L'
F49.9999999996855
sg183
F1
ssg184
S'__nrnsec_0x55ea164b4820'
p567
sg186
g165
((ltRp568
sa(dp569
g39
(dp570
S'na'
p571
(dp572
S'ena'
p573
(lp574
F50
aF50
asS'dina_dv_'
p575
(lp576
F0
aF0
asS'nai'
p577
(lp578
F10
aF10
asS'nao'
p579
(lp580
F140
aF140
asS'ina'
p581
(lp582
F0
aF0
asg53
F53
ssS'k'
(dp583
S'ek'
p584
(lp585
F-77
aF-77
asS'ki'
p586
(lp587
F54.399999999999999
aF54.399999999999999
asS'ko'
p588
(lp589
F2.5
aF2.5
asS'ik'
p590
(lp591
F0
aF0
asS'dik_dv_'
p592
(lp593
F0
aF0
asg53
F53
ssS'ca'
p594
(dp595
S'eca'
p596
(lp597
F132.45793416370091
aF132.45793416370091
asS'dica_dv_'
p598
(lp599
F0
aF0
asS'ica'
p600
(lp601
F0
aF0
asS'cai'
p602
(lp603
F5.0000000000000002e-05
aF5.0000000000000002e-05
asS'cao'
p604
(lp605
F2
aF2
asg53
F247
sssg77
S'SThcell[0].dend0[2]'
p606
sg79
(lp607
F1
aF1
asg81
I2
sg82
(dp608
S'Cacum'
p609
(dp610
sS'HVA'
p611
(dp612
S'gcaL'
p613
(lp614
F0.0001
aF0.0001
asS'gcaN'
p615
(lp616
F0.0015
aF0.0012999999999999999
asS'h'
(lp617
F0
aF0
asS'q'
(lp618
F0
aF0
asS'iNCa'
p619
(lp620
F0
aF0
asS'u'
(lp621
F0
aF0
asS'iLCa'
p622
(lp623
F0
aF0
asS'o_L'
p624
(lp625
F0
aF0
asS'o_N'
p626
(lp627
F0
aF0
assS'Na'
p628
(dp629
S'h'
(lp630
F0
aF0
asS'gna'
p631
(lp632
F9.9999999999999995e-08
aF9.9999999999999995e-08
asS'm'
(lp633
F0
aF0
asS'ina'
p634
(lp635
F0
aF0
asS'o'
(lp636
F0
aF0
assS'STh'
p637
(dp638
S'epas'
p639
(lp640
F-58.447699999999998
aF-58.447699999999998
asS'gpas'
p641
(lp642
F7.8411200000000006e-05
aF7.8411200000000006e-05
asS'ipas'
p643
(lp644
F0
aF0
assS'NaL'
p645
(dp646
S'inaL'
p647
(lp648
F0
aF0
asS'gna'
p649
(lp650
F8.1000000000000004e-06
aF8.1000000000000004e-06
assS'CaT'
p651
(dp652
S'd'
(lp653
F0
aF0
asS'iCaT'
p654
(lp655
F0
aF0
asS'o'
(lp656
F0
aF0
asS's'
(lp657
F0
aF0
asS'r'
(lp658
F0
aF0
asS'gcaT'
p659
(lp660
F0.0012999999999999999
aF0.0015
assS'Ih'
p661
(dp662
S'ih'
p663
(lp664
F0
aF0
asS'gk'
p665
(lp666
F0
aF0
asS'f'
(lp667
F0
aF0
assS'Kv31'
p668
(dp669
S'p'
(lp670
F0
aF0
asS'ik'
p671
(lp672
F0
aF0
asS'gk'
p673
(lp674
F0.0055999999999999999
aF0.0038999999999999998
assS'sKCa'
p675
(dp676
S'isKCa'
p677
(lp678
F0
aF0
asS'gk'
p679
(lp680
F0
aF0
asS'w'
(lp681
F0
aF0
assS'KDR'
p682
(dp683
S'ik'
p684
(lp685
F0
aF0
asS'gk'
p686
(lp687
F0
aF0.0001
asS'n'
(lp688
F0
aF0
asssg164
g165
((ltRp689
sg167
(dp690
sg174
F150.22399999999999
sg175
(dp691
g177
(lp692
F1.948
aF1.948
asg179
F0
sg180
I2
sg181
(lp693
sS'L'
F40
sg183
F1
ssg184
S'__nrnsec_0x55ea164b3c20'
p694
sg186
g165
((ltRp695
sa(dp696
g39
(dp697
S'na'
p698
(dp699
S'ena'
p700
(lp701
F50
aF50
asS'dina_dv_'
p702
(lp703
F0
aF0
asS'nai'
p704
(lp705
F10
aF10
asS'nao'
p706
(lp707
F140
aF140
asS'ina'
p708
(lp709
F0
aF0
asg53
F53
ssS'k'
(dp710
S'ek'
p711
(lp712
F-77
aF-77
asS'ki'
p713
(lp714
F54.399999999999999
aF54.399999999999999
asS'ko'
p715
(lp716
F2.5
aF2.5
asS'ik'
p717
(lp718
F0
aF0
asS'dik_dv_'
p719
(lp720
F0
aF0
asg53
F53
ssS'ca'
p721
(dp722
S'eca'
p723
(lp724
F132.45793416370091
aF132.45793416370091
asS'dica_dv_'
p725
(lp726
F0
aF0
asS'ica'
p727
(lp728
F0
aF0
asS'cai'
p729
(lp730
F5.0000000000000002e-05
aF5.0000000000000002e-05
asS'cao'
p731
(lp732
F2
aF2
asg53
F247
sssg77
S'SThcell[0].dend0[1]'
p733
sg79
(lp734
F1
aF1
asg81
I2
sg82
(dp735
S'Cacum'
p736
(dp737
sS'HVA'
p738
(dp739
S'gcaL'
p740
(lp741
F0.0001
aF0.0001
asS'gcaN'
p742
(lp743
F0.0015
aF0.0012999999999999999
asS'h'
(lp744
F0
aF0
asS'q'
(lp745
F0
aF0
asS'iNCa'
p746
(lp747
F0
aF0
asS'u'
(lp748
F0
aF0
asS'iLCa'
p749
(lp750
F0
aF0
asS'o_L'
p751
(lp752
F0
aF0
asS'o_N'
p753
(lp754
F0
aF0
assS'Na'
p755
(dp756
S'h'
(lp757
F0
aF0
asS'gna'
p758
(lp759
F9.9999999999999995e-08
aF9.9999999999999995e-08
asS'm'
(lp760
F0
aF0
asS'ina'
p761
(lp762
F0
aF0
asS'o'
(lp763
F0
aF0
assS'STh'
p764
(dp765
S'epas'
p766
(lp767
F-58.447699999999998
aF-58.447699999999998
asS'gpas'
p768
(lp769
F7.8411200000000006e-05
aF7.8411200000000006e-05
asS'ipas'
p770
(lp771
F0
aF0
assS'NaL'
p772
(dp773
S'inaL'
p774
(lp775
F0
aF0
asS'gna'
p776
(lp777
F8.1000000000000004e-06
aF8.1000000000000004e-06
assS'CaT'
p778
(dp779
S'd'
(lp780
F0
aF0
asS'iCaT'
p781
(lp782
F0
aF0
asS'o'
(lp783
F0
aF0
asS's'
(lp784
F0
aF0
asS'r'
(lp785
F0
aF0
asS'gcaT'
p786
(lp787
F0.0012999999999999999
aF0.0015
assS'Ih'
p788
(dp789
S'ih'
p790
(lp791
F0
aF0
asS'gk'
p792
(lp793
F0
aF0
asS'f'
(lp794
F0
aF0
assS'Kv31'
p795
(dp796
S'p'
(lp797
F0
aF0
asS'ik'
p798
(lp799
F0
aF0
asS'gk'
p800
(lp801
F0.0055999999999999999
aF0.0038999999999999998
assS'sKCa'
p802
(dp803
S'isKCa'
p804
(lp805
F0
aF0
asS'gk'
p806
(lp807
F0
aF0
asS'w'
(lp808
F0
aF0
assS'KDR'
p809
(dp810
S'ik'
p811
(lp812
F0
aF0
asS'gk'
p813
(lp814
F0
aF0.0001
asS'n'
(lp815
F0
aF0
asssg164
g165
((ltRp816
sg167
(dp817
sg174
F150.22399999999999
sg175
(dp818
g177
(lp819
F1.948
aF1.948
asg179
F0
sg180
I2
sg181
(lp820
sS'L'
F40
sg183
F1
ssg184
S'__nrnsec_0x55ea164b3bc0'
p821
sg186
g165
((ltRp822
sa(dp823
g39
(dp824
S'na'
p825
(dp826
S'ena'
p827
(lp828
F50
asS'dina_dv_'
p829
(lp830
F0
asS'nai'
p831
(lp832
F10
asS'nao'
p833
(lp834
F140
asS'ina'
p835
(lp836
F0
asg53
F53
ssS'k'
(dp837
S'ek'
p838
(lp839
F-77
asS'ki'
p840
(lp841
F54.399999999999999
asS'ko'
p842
(lp843
F2.5
asS'ik'
p844
(lp845
F0
asS'dik_dv_'
p846
(lp847
F0
asg53
F53
ssS'ca'
p848
(dp849
S'eca'
p850
(lp851
F132.45793416370091
asS'dica_dv_'
p852
(lp853
F0
asS'ica'
p854
(lp855
F0
asS'cai'
p856
(lp857
F5.0000000000000002e-05
asS'cao'
p858
(lp859
F2
asg53
F247
sssg77
S'zipA1'
p860
sg79
(lp861
F1.9999999999999998
asg81
I1
sg82
(dp862
S'Cacum'
p863
(dp864
sS'HVA'
p865
(dp866
S'gcaL'
p867
(lp868
F0.00019999999999999996
asS'gcaN'
p869
(lp870
F0.0013353333333335051
asS'h'
(lp871
F0
asS'q'
(lp872
F0
asS'iNCa'
p873
(lp874
F0
asS'u'
(lp875
F0
asS'iLCa'
p876
(lp877
F0
asS'o_L'
p878
(lp879
F0
asS'o_N'
p880
(lp881
F0
assS'Na'
p882
(dp883
S'h'
(lp884
F0
asS'gna'
p885
(lp886
F1.9999999999999999e-07
asS'm'
(lp887
F0
asS'ina'
p888
(lp889
F0
asS'o'
(lp890
F0
assS'STh'
p891
(dp892
S'epas'
p893
(lp894
F-58.447699999999998
asS'gpas'
p895
(lp896
F0.00015682240000000001
asS'ipas'
p897
(lp898
F0
assS'NaL'
p899
(dp900
S'inaL'
p901
(lp902
F0
asS'gna'
p903
(lp904
F1.6199999999999997e-05
assS'CaT'
p905
(dp906
S'd'
(lp907
F0
asS'iCaT'
p908
(lp909
F0
asS'o'
(lp910
F0
asS's'
(lp911
F0
asS'r'
(lp912
F0
asS'gcaT'
p913
(lp914
F0.0045128333333327537
assS'Ih'
p915
(dp916
S'ih'
p917
(lp918
F0
asS'gk'
p919
(lp920
F0
asS'f'
(lp921
F0
assS'Kv31'
p922
(dp923
S'p'
(lp924
F0
asS'ik'
p925
(lp926
F0
asS'gk'
p927
(lp928
F0.0017999999999999997
assS'sKCa'
p929
(dp930
S'isKCa'
p931
(lp932
F0
asS'gk'
p933
(lp934
F0
asS'w'
(lp935
F0
assS'KDR'
p936
(dp937
S'ik'
p938
(lp939
F0
asS'gk'
p940
(lp941
F0.00019999999999999996
asS'n'
(lp942
F0
asssg164
g165
((ltRp943
sg167
(dp944
sg174
F150.22399999999999
sg175
(dp945
g177
(lp946
F1.5389999999999999
asg179
F0
sg180
I3
sg181
(lp947
sS'L'
F49.999999999222005
sg183
F1
ssg184
S'__nrnsec_0x55ea164b4880'
p948
sg186
g165
((ltRp949
sa(dp950
g39
(dp951
S'na'
p952
(dp953
S'ena'
p954
(lp955
F50
asS'dina_dv_'
p956
(lp957
F0
asS'nai'
p958
(lp959
F10
asS'nao'
p960
(lp961
F140
asS'ina'
p962
(lp963
F0
asg53
F53
ssS'k'
(dp964
S'ek'
p965
(lp966
F-77
asS'ki'
p967
(lp968
F54.399999999999999
asS'ko'
p969
(lp970
F2.5
asS'ik'
p971
(lp972
F0
asS'dik_dv_'
p973
(lp974
F0
asg53
F53
ssS'ca'
p975
(dp976
S'eca'
p977
(lp978
F132.45793416370091
asS'dica_dv_'
p979
(lp980
F0
asS'ica'
p981
(lp982
F0
asS'cai'
p983
(lp984
F5.0000000000000002e-05
asS'cao'
p985
(lp986
F2
asg53
F247
sssg77
S'zipC0'
p987
sg79
(lp988
F1.5259187131733758
asg81
I1
sg82
(dp989
S'Cacum'
p990
(dp991
sS'HVA'
p992
(dp993
S'gcaL'
p994
(lp995
F0.00015259187131733758
asS'gcaN'
p996
(lp997
F0.0015692459252484021
asS'h'
(lp998
F0
asS'q'
(lp999
F0
asS'iNCa'
p1000
(lp1001
F0
asS'u'
(lp1002
F0
asS'iLCa'
p1003
(lp1004
F0
asS'o_L'
p1005
(lp1006
F0
asS'o_N'
p1007
(lp1008
F0
assS'Na'
p1009
(dp1010
S'h'
(lp1011
F0
asS'gna'
p1012
(lp1013
F1.5259187131733756e-07
asS'm'
(lp1014
F0
asS'ina'
p1015
(lp1016
F0
asS'o'
(lp1017
F0
assS'STh'
p1018
(dp1019
S'epas'
p1020
(lp1021
F-58.447699999999998
asS'gpas'
p1022
(lp1023
F0.00011964911740238024
asS'ipas'
p1024
(lp1025
F0
assS'NaL'
p1026
(dp1027
S'inaL'
p1028
(lp1029
F0
asS'gna'
p1030
(lp1031
F1.2359941576704344e-05
assS'CaT'
p1032
(dp1033
S'd'
(lp1034
F0
asS'iCaT'
p1035
(lp1036
F0
asS'o'
(lp1037
F0
asS's'
(lp1038
F0
asS'r'
(lp1039
F0
asS'gcaT'
p1040
(lp1041
F0.0028559183429543878
assS'Ih'
p1042
(dp1043
S'ih'
p1044
(lp1045
F0
asS'gk'
p1046
(lp1047
F0
asS'f'
(lp1048
F0
assS'Kv31'
p1049
(dp1050
S'p'
(lp1051
F0
asS'ik'
p1052
(lp1053
F0
asS'gk'
p1054
(lp1055
F0.0021284339103942282
assS'sKCa'
p1056
(dp1057
S'isKCa'
p1058
(lp1059
F0
asS'gk'
p1060
(lp1061
F0
asS'w'
(lp1062
F0
assS'KDR'
p1063
(dp1064
S'ik'
p1065
(lp1066
F0
asS'gk'
p1067
(lp1068
F0.00015259187131733758
asS'n'
(lp1069
F0
asssg164
g165
((ltRp1070
sg167
(dp1071
sg174
F150.22399999999999
sg175
(dp1072
g177
(lp1073
F1.690207989280565
asg179
F0
sg180
I4
sg181
(lp1074
sS'L'
F49.9999999996855
sg183
F1
ssg184
S'__nrnsec_0x55ea164b4d60'
p1075
sg186
g165
((ltRp1076
sa(dp1077
g39
(dp1078
S'na'
p1079
(dp1080
S'ena'
p1081
(lp1082
F50
asS'dina_dv_'
p1083
(lp1084
F0
asS'nai'
p1085
(lp1086
F10
asS'nao'
p1087
(lp1088
F140
asS'ina'
p1089
(lp1090
F0
asg53
F53
ssS'k'
(dp1091
S'ek'
p1092
(lp1093
F-77
asS'ki'
p1094
(lp1095
F54.399999999999999
asS'ko'
p1096
(lp1097
F2.5
asS'ik'
p1098
(lp1099
F0
asS'dik_dv_'
p1100
(lp1101
F0
asg53
F53
ssS'ca'
p1102
(dp1103
S'eca'
p1104
(lp1105
F132.45793416370091
asS'dica_dv_'
p1106
(lp1107
F0
asS'ica'
p1108
(lp1109
F0
asS'cai'
p1110
(lp1111
F5.0000000000000002e-05
asS'cao'
p1112
(lp1113
F2
asg53
F247
sssg77
S'zipB0'
p1114
sg79
(lp1115
F1.5259187131733758
asg81
I1
sg82
(dp1116
S'Cacum'
p1117
(dp1118
sS'HVA'
p1119
(dp1120
S'gcaL'
p1121
(lp1122
F0.00015259187131733758
asS'gcaN'
p1123
(lp1124
F0.0015692459252484021
asS'h'
(lp1125
F0
asS'q'
(lp1126
F0
asS'iNCa'
p1127
(lp1128
F0
asS'u'
(lp1129
F0
asS'iLCa'
p1130
(lp1131
F0
asS'o_L'
p1132
(lp1133
F0
asS'o_N'
p1134
(lp1135
F0
assS'Na'
p1136
(dp1137
S'h'
(lp1138
F0
asS'gna'
p1139
(lp1140
F1.5259187131733756e-07
asS'm'
(lp1141
F0
asS'ina'
p1142
(lp1143
F0
asS'o'
(lp1144
F0
assS'STh'
p1145
(dp1146
S'epas'
p1147
(lp1148
F-58.447699999999998
asS'gpas'
p1149
(lp1150
F0.00011964911740238024
asS'ipas'
p1151
(lp1152
F0
assS'NaL'
p1153
(dp1154
S'inaL'
p1155
(lp1156
F0
asS'gna'
p1157
(lp1158
F1.2359941576704344e-05
assS'CaT'
p1159
(dp1160
S'd'
(lp1161
F0
asS'iCaT'
p1162
(lp1163
F0
asS'o'
(lp1164
F0
asS's'
(lp1165
F0
asS'r'
(lp1166
F0
asS'gcaT'
p1167
(lp1168
F0.0028559183429543878
assS'Ih'
p1169
(dp1170
S'ih'
p1171
(lp1172
F0
asS'gk'
p1173
(lp1174
F0
asS'f'
(lp1175
F0
assS'Kv31'
p1176
(dp1177
S'p'
(lp1178
F0
asS'ik'
p1179
(lp1180
F0
asS'gk'
p1181
(lp1182
F0.0021284339103942282
assS'sKCa'
p1183
(dp1184
S'isKCa'
p1185
(lp1186
F0
asS'gk'
p1187
(lp1188
F0
asS'w'
(lp1189
F0
assS'KDR'
p1190
(dp1191
S'ik'
p1192
(lp1193
F0
asS'gk'
p1194
(lp1195
F0.00015259187131733758
asS'n'
(lp1196
F0
asssg164
g165
((ltRp1197
sg167
(dp1198
sg174
F150.22399999999999
sg175
(dp1199
g177
(lp1200
F1.690207989280565
asg179
F0
sg180
I5
sg181
(lp1201
sS'L'
F49.9999999996855
sg183
F1
ssg184
S'__nrnsec_0x55ea164b4ac0'
p1202
sg186
g165
((ltRp1203
sa(dp1204
g39
(dp1205
S'na'
p1206
(dp1207
S'ena'
p1208
(lp1209
F50
asS'dina_dv_'
p1210
(lp1211
F0
asS'nai'
p1212
(lp1213
F10
asS'nao'
p1214
(lp1215
F140
asS'ina'
p1216
(lp1217
F0
asg53
F53
ssS'k'
(dp1218
S'ek'
p1219
(lp1220
F-77
asS'ki'
p1221
(lp1222
F54.399999999999999
asS'ko'
p1223
(lp1224
F2.5
asS'ik'
p1225
(lp1226
F0
asS'dik_dv_'
p1227
(lp1228
F0
asg53
F53
ssS'ca'
p1229
(dp1230
S'eca'
p1231
(lp1232
F132.45793416370091
asS'dica_dv_'
p1233
(lp1234
F0
asS'ica'
p1235
(lp1236
F0
asS'cai'
p1237
(lp1238
F5.0000000000000002e-05
asS'cao'
p1239
(lp1240
F2
asg53
F247
sssg77
S'zipA2'
p1241
sg79
(lp1242
F2.0778777122629566
asg81
I1
sg82
(dp1243
S'Cacum'
p1244
(dp1245
sS'HVA'
p1246
(dp1247
S'gcaL'
p1248
(lp1249
F0.00020778777122629568
asS'gcaN'
p1250
(lp1251
F0.00041932319264675736
asS'h'
(lp1252
F0
asS'q'
(lp1253
F0
asS'iNCa'
p1254
(lp1255
F0
asS'u'
(lp1256
F0
asS'iLCa'
p1257
(lp1258
F0
asS'o_L'
p1259
(lp1260
F0
asS'o_N'
p1261
(lp1262
F0
assS'Na'
p1263
(dp1264
S'h'
(lp1265
F0
asS'gna'
p1266
(lp1267
F2.0778777122629565e-07
asS'm'
(lp1268
F0
asS'ina'
p1269
(lp1270
F0
asS'o'
(lp1271
F0
assS'STh'
p1272
(dp1273
S'epas'
p1274
(lp1275
F-58.447699999999998
asS'gpas'
p1276
(lp1277
F0.00016292888487179314
asS'ipas'
p1278
(lp1279
F0
assS'NaL'
p1280
(dp1281
S'inaL'
p1282
(lp1283
F0
asS'gna'
p1284
(lp1285
F1.6830809469329954e-05
assS'CaT'
p1286
(dp1287
S'd'
(lp1288
F0
asS'iCaT'
p1289
(lp1290
F0
asS'o'
(lp1291
F0
asS's'
(lp1292
F0
asS'r'
(lp1293
F0
asS'gcaT'
p1294
(lp1295
F0.0057104068521592428
assS'Ih'
p1296
(dp1297
S'ih'
p1298
(lp1299
F0
asS'gk'
p1300
(lp1301
F0.00033541863792718154
asS'f'
(lp1302
F0
assS'Kv31'
p1303
(dp1304
S'p'
(lp1305
F0
asS'ik'
p1306
(lp1307
F0
asS'gk'
p1308
(lp1309
F0.001870089941036661
assS'sKCa'
p1310
(dp1311
S'isKCa'
p1312
(lp1313
F0
asS'gk'
p1314
(lp1315
F0
asS'w'
(lp1316
F0
assS'KDR'
p1317
(dp1318
S'ik'
p1319
(lp1320
F0
asS'gk'
p1321
(lp1322
F0.00020778777122629568
asS'n'
(lp1323
F0
asssg164
g165
((ltRp1324
sg167
(dp1325
sg174
F150.22399999999999
sg175
(dp1326
g177
(lp1327
F1.5206862181312437
asg179
F0
sg180
I6
sg181
(lp1328
sS'L'
F49.999999999192724
sg183
F1
ssg184
S'__nrnsec_0x55ea164b48e0'
p1329
sg186
g165
((ltRp1330
sa(dp1331
g39
(dp1332
S'na'
p1333
(dp1334
S'ena'
p1335
(lp1336
F50
asS'dina_dv_'
p1337
(lp1338
F0
asS'nai'
p1339
(lp1340
F10
asS'nao'
p1341
(lp1342
F140
asS'ina'
p1343
(lp1344
F0
asg53
F53
ssS'k'
(dp1345
S'ek'
p1346
(lp1347
F-77
asS'ki'
p1348
(lp1349
F54.399999999999999
asS'ko'
p1350
(lp1351
F2.5
asS'ik'
p1352
(lp1353
F0
asS'dik_dv_'
p1354
(lp1355
F0
asg53
F53
ssS'ca'
p1356
(dp1357
S'eca'
p1358
(lp1359
F132.45793416370091
asS'dica_dv_'
p1360
(lp1361
F0
asS'ica'
p1362
(lp1363
F0
asS'cai'
p1364
(lp1365
F5.0000000000000002e-05
asS'cao'
p1366
(lp1367
F2
asg53
F247
sssg77
S'zipC1'
p1368
sg79
(lp1369
F1.9999999999999998
asg81
I1
sg82
(dp1370
S'Cacum'
p1371
(dp1372
sS'HVA'
p1373
(dp1374
S'gcaL'
p1375
(lp1376
F0.00019999999999999996
asS'gcaN'
p1377
(lp1378
F0.0011853333333338829
asS'h'
(lp1379
F0
asS'q'
(lp1380
F0
asS'iNCa'
p1381
(lp1382
F0
asS'u'
(lp1383
F0
asS'iLCa'
p1384
(lp1385
F0
asS'o_L'
p1386
(lp1387
F0
asS'o_N'
p1388
(lp1389
F0
assS'Na'
p1390
(dp1391
S'h'
(lp1392
F0
asS'gna'
p1393
(lp1394
F1.9999999999999999e-07
asS'm'
(lp1395
F0
asS'ina'
p1396
(lp1397
F0
asS'o'
(lp1398
F0
assS'STh'
p1399
(dp1400
S'epas'
p1401
(lp1402
F-58.447699999999998
asS'gpas'
p1403
(lp1404
F0.00015682240000000001
asS'ipas'
p1405
(lp1406
F0
assS'NaL'
p1407
(dp1408
S'inaL'
p1409
(lp1410
F0
asS'gna'
p1411
(lp1412
F1.6199999999999997e-05
assS'CaT'
p1413
(dp1414
S'd'
(lp1415
F0
asS'iCaT'
p1416
(lp1417
F0
asS'o'
(lp1418
F0
asS's'
(lp1419
F0
asS'r'
(lp1420
F0
asS'gcaT'
p1421
(lp1422
F0.0047128333333327542
assS'Ih'
p1423
(dp1424
S'ih'
p1425
(lp1426
F0
asS'gk'
p1427
(lp1428
F0
asS'f'
(lp1429
F0
assS'Kv31'
p1430
(dp1431
S'p'
(lp1432
F0
asS'ik'
p1433
(lp1434
F0
asS'gk'
p1435
(lp1436
F0.0017999999999999997
assS'sKCa'
p1437
(dp1438
S'isKCa'
p1439
(lp1440
F0
asS'gk'
p1441
(lp1442
F0
asS'w'
(lp1443
F0
assS'KDR'
p1444
(dp1445
S'ik'
p1446
(lp1447
F0
asS'gk'
p1448
(lp1449
F0.00019999999999999996
asS'n'
(lp1450
F0
asssg164
g165
((ltRp1451
sg167
(dp1452
sg174
F150.22399999999999
sg175
(dp1453
g177
(lp1454
F1.5389999999999999
asg179
F0
sg180
I7
sg181
(lp1455
sS'L'
F49.999999999222005
sg183
F1
ssg184
S'__nrnsec_0x55ea164b4dc0'
p1456
sg186
g165
((ltRp1457
sa(dp1458
g39
(dp1459
S'na'
p1460
(dp1461
S'ena'
p1462
(lp1463
F50
asS'dina_dv_'
p1464
(lp1465
F0
asS'nai'
p1466
(lp1467
F10
asS'nao'
p1468
(lp1469
F140
asS'ina'
p1470
(lp1471
F0
asg53
F53
ssS'k'
(dp1472
S'ek'
p1473
(lp1474
F-77
asS'ki'
p1475
(lp1476
F54.399999999999999
asS'ko'
p1477
(lp1478
F2.5
asS'ik'
p1479
(lp1480
F0
asS'dik_dv_'
p1481
(lp1482
F0
asg53
F53
ssS'ca'
p1483
(dp1484
S'eca'
p1485
(lp1486
F132.45793416370091
asS'dica_dv_'
p1487
(lp1488
F0
asS'ica'
p1489
(lp1490
F0
asS'cai'
p1491
(lp1492
F5.0000000000000002e-05
asS'cao'
p1493
(lp1494
F2
asg53
F247
sssg77
S'zipB1'
p1495
sg79
(lp1496
F1.9999999999999998
asg81
I1
sg82
(dp1497
S'Cacum'
p1498
(dp1499
sS'HVA'
p1500
(dp1501
S'gcaL'
p1502
(lp1503
F0.00019999999999999996
asS'gcaN'
p1504
(lp1505
F0.0011853333333338829
asS'h'
(lp1506
F0
asS'q'
(lp1507
F0
asS'iNCa'
p1508
(lp1509
F0
asS'u'
(lp1510
F0
asS'iLCa'
p1511
(lp1512
F0
asS'o_L'
p1513
(lp1514
F0
asS'o_N'
p1515
(lp1516
F0
assS'Na'
p1517
(dp1518
S'h'
(lp1519
F0
asS'gna'
p1520
(lp1521
F1.9999999999999999e-07
asS'm'
(lp1522
F0
asS'ina'
p1523
(lp1524
F0
asS'o'
(lp1525
F0
assS'STh'
p1526
(dp1527
S'epas'
p1528
(lp1529
F-58.447699999999998
asS'gpas'
p1530
(lp1531
F0.00015682240000000001
asS'ipas'
p1532
(lp1533
F0
assS'NaL'
p1534
(dp1535
S'inaL'
p1536
(lp1537
F0
asS'gna'
p1538
(lp1539
F1.6199999999999997e-05
assS'CaT'
p1540
(dp1541
S'd'
(lp1542
F0
asS'iCaT'
p1543
(lp1544
F0
asS'o'
(lp1545
F0
asS's'
(lp1546
F0
asS'r'
(lp1547
F0
asS'gcaT'
p1548
(lp1549
F0.0047128333333327542
assS'Ih'
p1550
(dp1551
S'ih'
p1552
(lp1553
F0
asS'gk'
p1554
(lp1555
F0
asS'f'
(lp1556
F0
assS'Kv31'
p1557
(dp1558
S'p'
(lp1559
F0
asS'ik'
p1560
(lp1561
F0
asS'gk'
p1562
(lp1563
F0.0017999999999999997
assS'sKCa'
p1564
(dp1565
S'isKCa'
p1566
(lp1567
F0
asS'gk'
p1568
(lp1569
F0
asS'w'
(lp1570
F0
assS'KDR'
p1571
(dp1572
S'ik'
p1573
(lp1574
F0
asS'gk'
p1575
(lp1576
F0.00019999999999999996
asS'n'
(lp1577
F0
asssg164
g165
((ltRp1578
sg167
(dp1579
sg174
F150.22399999999999
sg175
(dp1580
g177
(lp1581
F1.5389999999999999
asg179
F0
sg180
I8
sg181
(lp1582
sS'L'
F49.999999999222005
sg183
F1
ssg184
S'__nrnsec_0x55ea164b4b20'
p1583
sg186
g165
((ltRp1584
sa(dp1585
g39
(dp1586
S'na'
p1587
(dp1588
S'ena'
p1589
(lp1590
F50
asS'dina_dv_'
p1591
(lp1592
F0
asS'nai'
p1593
(lp1594
F10
asS'nao'
p1595
(lp1596
F140
asS'ina'
p1597
(lp1598
F0
asg53
F53
ssS'k'
(dp1599
S'ek'
p1600
(lp1601
F-77
asS'ki'
p1602
(lp1603
F54.399999999999999
asS'ko'
p1604
(lp1605
F2.5
asS'ik'
p1606
(lp1607
F0
asS'dik_dv_'
p1608
(lp1609
F0
asg53
F53
ssS'ca'
p1610
(dp1611
S'eca'
p1612
(lp1613
F132.45793416370091
asS'dica_dv_'
p1614
(lp1615
F0
asS'ica'
p1616
(lp1617
F0
asS'cai'
p1618
(lp1619
F5.0000000000000002e-05
asS'cao'
p1620
(lp1621
F2
asg53
F247
sssg77
S'zipA3'
p1622
sg79
(lp1623
F2.387607774029719
asg81
I1
sg82
(dp1624
S'Cacum'
p1625
(dp1626
sS'HVA'
p1627
(dp1628
S'gcaL'
p1629
(lp1630
F0.0011169355154818927
asS'gcaN'
p1631
(lp1632
F0
asS'h'
(lp1633
F0
asS'q'
(lp1634
F0
asS'iNCa'
p1635
(lp1636
F0
asS'u'
(lp1637
F0
asS'iLCa'
p1638
(lp1639
F0
asS'o_L'
p1640
(lp1641
F0
asS'o_N'
p1642
(lp1643
F0
assS'Na'
p1644
(dp1645
S'h'
(lp1646
F0
asS'gna'
p1647
(lp1648
F2.3876077740297192e-07
asS'm'
(lp1649
F0
asS'ina'
p1650
(lp1651
F0
asS'o'
(lp1652
F0
assS'STh'
p1653
(dp1654
S'epas'
p1655
(lp1656
F-58.447699999999998
asS'gpas'
p1657
(lp1658
F0.00018721519069099911
asS'ipas'
p1659
(lp1660
F0
assS'NaL'
p1661
(dp1662
S'inaL'
p1663
(lp1664
F0
asS'gna'
p1665
(lp1666
F1.9339622969640726e-05
assS'CaT'
p1667
(dp1668
S'd'
(lp1669
F0
asS'iCaT'
p1670
(lp1671
F0
asS'o'
(lp1672
F0
asS's'
(lp1673
F0
asS'r'
(lp1674
F0
asS'gcaT'
p1675
(lp1676
F0.0076617717223417814
assS'Ih'
p1677
(dp1678
S'ih'
p1679
(lp1680
F0
asS'gk'
p1681
(lp1682
F0.0013219370116433296
asS'f'
(lp1683
F0
assS'Kv31'
p1684
(dp1685
S'p'
(lp1686
F0
asS'ik'
p1687
(lp1688
F0
asS'gk'
p1689
(lp1690
F0.0021488469966267467
assS'sKCa'
p1691
(dp1692
S'isKCa'
p1693
(lp1694
F0
asS'gk'
p1695
(lp1696
F0
asS'w'
(lp1697
F0
assS'KDR'
p1698
(dp1699
S'ik'
p1700
(lp1701
F0
asS'gk'
p1702
(lp1703
F0.00041555296502410871
asS'n'
(lp1704
F0
asssg164
g165
((ltRp1705
sg167
(dp1706
sg174
F150.22399999999996
sg175
(dp1707
g177
(lp1708
F1.4604576337573096
asg179
F0
sg180
I9
sg181
(lp1709
sS'L'
F49.999999999154618
sg183
F1
ssg184
S'__nrnsec_0x55ea164b4940'
p1710
sg186
g165
((ltRp1711
sa(dp1712
g39
(dp1713
S'na'
p1714
(dp1715
S'ena'
p1716
(lp1717
F50
asS'dina_dv_'
p1718
(lp1719
F0
asS'nai'
p1720
(lp1721
F10
asS'nao'
p1722
(lp1723
F140
asS'ina'
p1724
(lp1725
F0
asg53
F53
ssS'k'
(dp1726
S'ek'
p1727
(lp1728
F-77
asS'ki'
p1729
(lp1730
F54.399999999999999
asS'ko'
p1731
(lp1732
F2.5
asS'ik'
p1733
(lp1734
F0
asS'dik_dv_'
p1735
(lp1736
F0
asg53
F53
ssS'ca'
p1737
(dp1738
S'eca'
p1739
(lp1740
F132.45793416370091
asS'dica_dv_'
p1741
(lp1742
F0
asS'ica'
p1743
(lp1744
F0
asS'cai'
p1745
(lp1746
F5.0000000000000002e-05
asS'cao'
p1747
(lp1748
F2
asg53
F247
sssg77
S'zipC2'
p1749
sg79
(lp1750
F2.0778777122629566
asg81
I1
sg82
(dp1751
S'Cacum'
p1752
(dp1753
sS'HVA'
p1754
(dp1755
S'gcaL'
p1756
(lp1757
F0.00020778777122629568
asS'gcaN'
p1758
(lp1759
F0.00026481794547687505
asS'h'
(lp1760
F0
asS'q'
(lp1761
F0
asS'iNCa'
p1762
(lp1763
F0
asS'u'
(lp1764
F0
asS'iLCa'
p1765
(lp1766
F0
asS'o_L'
p1767
(lp1768
F0
asS'o_N'
p1769
(lp1770
F0
assS'Na'
p1771
(dp1772
S'h'
(lp1773
F0
asS'gna'
p1774
(lp1775
F2.0778777122629565e-07
asS'm'
(lp1776
F0
asS'ina'
p1777
(lp1778
F0
asS'o'
(lp1779
F0
assS'STh'
p1780
(dp1781
S'epas'
p1782
(lp1783
F-58.447699999999998
asS'gpas'
p1784
(lp1785
F0.00016292888487179314
asS'ipas'
p1786
(lp1787
F0
assS'NaL'
p1788
(dp1789
S'inaL'
p1790
(lp1791
F0
asS'gna'
p1792
(lp1793
F1.6830809469329954e-05
assS'CaT'
p1794
(dp1795
S'd'
(lp1796
F0
asS'iCaT'
p1797
(lp1798
F0
asS'o'
(lp1799
F0
asS's'
(lp1800
F0
asS'r'
(lp1801
F0
asS'gcaT'
p1802
(lp1803
F0.0059181946233855375
assS'Ih'
p1804
(dp1805
S'ih'
p1806
(lp1807
F0
asS'gk'
p1808
(lp1809
F0.00041182789225842527
asS'f'
(lp1810
F0
assS'Kv31'
p1811
(dp1812
S'p'
(lp1813
F0
asS'ik'
p1814
(lp1815
F0
asS'gk'
p1816
(lp1817
F0.001870089941036661
assS'sKCa'
p1818
(dp1819
S'isKCa'
p1820
(lp1821
F0
asS'gk'
p1822
(lp1823
F0
asS'w'
(lp1824
F0
assS'KDR'
p1825
(dp1826
S'ik'
p1827
(lp1828
F0
asS'gk'
p1829
(lp1830
F0.00020778777122629568
asS'n'
(lp1831
F0
asssg164
g165
((ltRp1832
sg167
(dp1833
sg174
F150.22399999999999
sg175
(dp1834
g177
(lp1835
F1.5206862181312437
asg179
F0
sg180
I10
sg181
(lp1836
sS'L'
F49.999999999192724
sg183
F1
ssg184
S'__nrnsec_0x55ea164b4e20'
p1837
sg186
g165
((ltRp1838
sa(dp1839
g39
(dp1840
S'na'
p1841
(dp1842
S'ena'
p1843
(lp1844
F50
asS'dina_dv_'
p1845
(lp1846
F0
asS'nai'
p1847
(lp1848
F10
asS'nao'
p1849
(lp1850
F140
asS'ina'
p1851
(lp1852
F0
asg53
F53
ssS'k'
(dp1853
S'ek'
p1854
(lp1855
F-77
asS'ki'
p1856
(lp1857
F54.399999999999999
asS'ko'
p1858
(lp1859
F2.5
asS'ik'
p1860
(lp1861
F0
asS'dik_dv_'
p1862
(lp1863
F0
asg53
F53
ssS'ca'
p1864
(dp1865
S'eca'
p1866
(lp1867
F132.45793416370091
asS'dica_dv_'
p1868
(lp1869
F0
asS'ica'
p1870
(lp1871
F0
asS'cai'
p1872
(lp1873
F5.0000000000000002e-05
asS'cao'
p1874
(lp1875
F2
asg53
F247
sssg77
S'zipB2'
p1876
sg79
(lp1877
F2.0778777122629566
asg81
I1
sg82
(dp1878
S'Cacum'
p1879
(dp1880
sS'HVA'
p1881
(dp1882
S'gcaL'
p1883
(lp1884
F0.00020778777122629568
asS'gcaN'
p1885
(lp1886
F0.00026481794547687505
asS'h'
(lp1887
F0
asS'q'
(lp1888
F0
asS'iNCa'
p1889
(lp1890
F0
asS'u'
(lp1891
F0
asS'iLCa'
p1892
(lp1893
F0
asS'o_L'
p1894
(lp1895
F0
asS'o_N'
p1896
(lp1897
F0
assS'Na'
p1898
(dp1899
S'h'
(lp1900
F0
asS'gna'
p1901
(lp1902
F2.0778777122629565e-07
asS'm'
(lp1903
F0
asS'ina'
p1904
(lp1905
F0
asS'o'
(lp1906
F0
assS'STh'
p1907
(dp1908
S'epas'
p1909
(lp1910
F-58.447699999999998
asS'gpas'
p1911
(lp1912
F0.00016292888487179314
asS'ipas'
p1913
(lp1914
F0
assS'NaL'
p1915
(dp1916
S'inaL'
p1917
(lp1918
F0
asS'gna'
p1919
(lp1920
F1.6830809469329954e-05
assS'CaT'
p1921
(dp1922
S'd'
(lp1923
F0
asS'iCaT'
p1924
(lp1925
F0
asS'o'
(lp1926
F0
asS's'
(lp1927
F0
asS'r'
(lp1928
F0
asS'gcaT'
p1929
(lp1930
F0.0059181946233855375
assS'Ih'
p1931
(dp1932
S'ih'
p1933
(lp1934
F0
asS'gk'
p1935
(lp1936
F0.00041182789225842527
asS'f'
(lp1937
F0
assS'Kv31'
p1938
(dp1939
S'p'
(lp1940
F0
asS'ik'
p1941
(lp1942
F0
asS'gk'
p1943
(lp1944
F0.001870089941036661
assS'sKCa'
p1945
(dp1946
S'isKCa'
p1947
(lp1948
F0
asS'gk'
p1949
(lp1950
F0
asS'w'
(lp1951
F0
assS'KDR'
p1952
(dp1953
S'ik'
p1954
(lp1955
F0
asS'gk'
p1956
(lp1957
F0.00020778777122629568
asS'n'
(lp1958
F0
asssg164
g165
((ltRp1959
sg167
(dp1960
sg174
F150.22399999999999
sg175
(dp1961
g177
(lp1962
F1.5206862181312437
asg179
F0
sg180
I11
sg181
(lp1963
sS'L'
F49.999999999192724
sg183
F1
ssg184
S'__nrnsec_0x55ea164b4b80'
p1964
sg186
g165
((ltRp1965
sa(dp1966
g39
(dp1967
S'na'
p1968
(dp1969
S'ena'
p1970
(lp1971
F50
asS'dina_dv_'
p1972
(lp1973
F0
asS'nai'
p1974
(lp1975
F10
asS'nao'
p1976
(lp1977
F140
asS'ina'
p1978
(lp1979
F0
asg53
F53
ssS'k'
(dp1980
S'ek'
p1981
(lp1982
F-77
asS'ki'
p1983
(lp1984
F54.399999999999999
asS'ko'
p1985
(lp1986
F2.5
asS'ik'
p1987
(lp1988
F0
asS'dik_dv_'
p1989
(lp1990
F0
asg53
F53
ssS'ca'
p1991
(dp1992
S'eca'
p1993
(lp1994
F132.45793416370091
asS'dica_dv_'
p1995
(lp1996
F0
asS'ica'
p1997
(lp1998
F0
asS'cai'
p1999
(lp2000
F5.0000000000000002e-05
asS'cao'
p2001
(lp2002
F2
asg53
F247
sssg77
S'zipA4'
p2003
sg79
(lp2004
F2.3876077740297181
asg81
I1
sg82
(dp2005
S'Cacum'
p2006
(dp2007
sS'HVA'
p2008
(dp2009
S'gcaL'
p2010
(lp2011
F0.0078980449233101453
asS'gcaN'
p2012
(lp2013
F0
asS'h'
(lp2014
F0
asS'q'
(lp2015
F0
asS'iNCa'
p2016
(lp2017
F0
asS'u'
(lp2018
F0
asS'iLCa'
p2019
(lp2020
F0
asS'o_L'
p2021
(lp2022
F0
asS'o_N'
p2023
(lp2024
F0
assS'Na'
p2025
(dp2026
S'h'
(lp2027
F0
asS'gna'
p2028
(lp2029
F2.3876077740297181e-07
asS'm'
(lp2030
F0
asS'ina'
p2031
(lp2032
F0
asS'o'
(lp2033
F0
assS'STh'
p2034
(dp2035
S'epas'
p2036
(lp2037
F-58.447699999999998
asS'gpas'
p2038
(lp2039
F0.00018721519069099909
asS'ipas'
p2040
(lp2041
F0
assS'NaL'
p2042
(dp2043
S'inaL'
p2044
(lp2045
F0
asS'gna'
p2046
(lp2047
F1.9339622969640723e-05
assS'CaT'
p2048
(dp2049
S'd'
(lp2050
F0
asS'iCaT'
p2051
(lp2052
F0
asS'o'
(lp2053
F0
asS's'
(lp2054
F0
asS'r'
(lp2055
F0
asS'gcaT'
p2056
(lp2057
F0.0088529411611465419
assS'Ih'
p2058
(dp2059
S'ih'
p2060
(lp2061
F0
asS'gk'
p2062
(lp2063
F0.0022924355507580301
asS'f'
(lp2064
F0
assS'Kv31'
p2065
(dp2066
S'p'
(lp2067
F0
asS'ik'
p2068
(lp2069
F0
asS'gk'
p2070
(lp2071
F0.0021488469966267462
assS'sKCa'
p2072
(dp2073
S'isKCa'
p2074
(lp2075
F0
asS'gk'
p2076
(lp2077
F0.00018065604499684009
asS'w'
(lp2078
F0
assS'KDR'
p2079
(dp2080
S'ik'
p2081
(lp2082
F0
asS'gk'
p2083
(lp2084
F0.00047752155480594366
asS'n'
(lp2085
F0
asssg164
g165
((ltRp2086
sg167
(dp2087
sg174
F150.22399999999996
sg175
(dp2088
g177
(lp2089
F1.4604576337573096
asg179
F0
sg180
I12
sg181
(lp2090
sS'L'
F49.999999999154625
sg183
F1
ssg184
S'__nrnsec_0x55ea164b49a0'
p2091
sg186
g165
((ltRp2092
sa(dp2093
g39
(dp2094
S'na'
p2095
(dp2096
S'ena'
p2097
(lp2098
F50
asS'dina_dv_'
p2099
(lp2100
F0
asS'nai'
p2101
(lp2102
F10
asS'nao'
p2103
(lp2104
F140
asS'ina'
p2105
(lp2106
F0
asg53
F53
ssS'k'
(dp2107
S'ek'
p2108
(lp2109
F-77
asS'ki'
p2110
(lp2111
F54.399999999999999
asS'ko'
p2112
(lp2113
F2.5
asS'ik'
p2114
(lp2115
F0
asS'dik_dv_'
p2116
(lp2117
F0
asg53
F53
ssS'ca'
p2118
(dp2119
S'eca'
p2120
(lp2121
F132.45793416370091
asS'dica_dv_'
p2122
(lp2123
F0
asS'ica'
p2124
(lp2125
F0
asS'cai'
p2126
(lp2127
F5.0000000000000002e-05
asS'cao'
p2128
(lp2129
F2
asg53
F247
sssg77
S'zipC3'
p2130
sg79
(lp2131
F2.387607774029719
asg81
I1
sg82
(dp2132
S'Cacum'
p2133
(dp2134
sS'HVA'
p2135
(dp2136
S'gcaL'
p2137
(lp2138
F0.0021514526867295845
asS'gcaN'
p2139
(lp2140
F0
asS'h'
(lp2141
F0
asS'q'
(lp2142
F0
asS'iNCa'
p2143
(lp2144
F0
asS'u'
(lp2145
F0
asS'iLCa'
p2146
(lp2147
F0
asS'o_L'
p2148
(lp2149
F0
asS'o_N'
p2150
(lp2151
F0
assS'Na'
p2152
(dp2153
S'h'
(lp2154
F0
asS'gna'
p2155
(lp2156
F2.3876077740297192e-07
asS'm'
(lp2157
F0
asS'ina'
p2158
(lp2159
F0
asS'o'
(lp2160
F0
assS'STh'
p2161
(dp2162
S'epas'
p2163
(lp2164
F-58.447699999999998
asS'gpas'
p2165
(lp2166
F0.00018721519069099911
asS'ipas'
p2167
(lp2168
F0
assS'NaL'
p2169
(dp2170
S'inaL'
p2171
(lp2172
F0
asS'gna'
p2173
(lp2174
F1.9339622969640726e-05
assS'CaT'
p2175
(dp2176
S'd'
(lp2177
F0
asS'iCaT'
p2178
(lp2179
F0
asS'o'
(lp2180
F0
asS's'
(lp2181
F0
asS'r'
(lp2182
F0
asS'gcaT'
p2183
(lp2184
F0.0079005324997447543
assS'Ih'
p2185
(dp2186
S'ih'
p2187
(lp2188
F0
asS'gk'
p2189
(lp2190
F0.001520682934353081
asS'f'
(lp2191
F0
assS'Kv31'
p2192
(dp2193
S'p'
(lp2194
F0
asS'ik'
p2195
(lp2196
F0
asS'gk'
p2197
(lp2198
F0.0021488469966267467
assS'sKCa'
p2199
(dp2200
S'isKCa'
p2201
(lp2202
F0
asS'gk'
p2203
(lp2204
F5.9343727607502512e-05
asS'w'
(lp2205
F0
assS'KDR'
p2206
(dp2207
S'ik'
p2208
(lp2209
F0
asS'gk'
p2210
(lp2211
F0.00041555296502410871
asS'n'
(lp2212
F0
asssg164
g165
((ltRp2213
sg167
(dp2214
sg174
F150.22399999999996
sg175
(dp2215
g177
(lp2216
F1.4604576337573096
asg179
F0
sg180
I13
sg181
(lp2217
sS'L'
F49.999999999154618
sg183
F1
ssg184
S'__nrnsec_0x55ea164b4e80'
p2218
sg186
g165
((ltRp2219
sa(dp2220
g39
(dp2221
S'na'
p2222
(dp2223
S'ena'
p2224
(lp2225
F50
asS'dina_dv_'
p2226
(lp2227
F0
asS'nai'
p2228
(lp2229
F10
asS'nao'
p2230
(lp2231
F140
asS'ina'
p2232
(lp2233
F0
asg53
F53
ssS'k'
(dp2234
S'ek'
p2235
(lp2236
F-77
asS'ki'
p2237
(lp2238
F54.399999999999999
asS'ko'
p2239
(lp2240
F2.5
asS'ik'
p2241
(lp2242
F0
asS'dik_dv_'
p2243
(lp2244
F0
asg53
F53
ssS'ca'
p2245
(dp2246
S'eca'
p2247
(lp2248
F132.45793416370091
asS'dica_dv_'
p2249
(lp2250
F0
asS'ica'
p2251
(lp2252
F0
asS'cai'
p2253
(lp2254
F5.0000000000000002e-05
asS'cao'
p2255
(lp2256
F2
asg53
F247
sssg77
S'zipB3'
p2257
sg79
(lp2258
F2.387607774029719
asg81
I1
sg82
(dp2259
S'Cacum'
p2260
(dp2261
sS'HVA'
p2262
(dp2263
S'gcaL'
p2264
(lp2265
F0.0021514526867295845
asS'gcaN'
p2266
(lp2267
F0
asS'h'
(lp2268
F0
asS'q'
(lp2269
F0
asS'iNCa'
p2270
(lp2271
F0
asS'u'
(lp2272
F0
asS'iLCa'
p2273
(lp2274
F0
asS'o_L'
p2275
(lp2276
F0
asS'o_N'
p2277
(lp2278
F0
assS'Na'
p2279
(dp2280
S'h'
(lp2281
F0
asS'gna'
p2282
(lp2283
F2.3876077740297192e-07
asS'm'
(lp2284
F0
asS'ina'
p2285
(lp2286
F0
asS'o'
(lp2287
F0
assS'STh'
p2288
(dp2289
S'epas'
p2290
(lp2291
F-58.447699999999998
asS'gpas'
p2292
(lp2293
F0.00018721519069099911
asS'ipas'
p2294
(lp2295
F0
assS'NaL'
p2296
(dp2297
S'inaL'
p2298
(lp2299
F0
asS'gna'
p2300
(lp2301
F1.9339622969640726e-05
assS'CaT'
p2302
(dp2303
S'd'
(lp2304
F0
asS'iCaT'
p2305
(lp2306
F0
asS'o'
(lp2307
F0
asS's'
(lp2308
F0
asS'r'
(lp2309
F0
asS'gcaT'
p2310
(lp2311
F0.0079005324997447543
assS'Ih'
p2312
(dp2313
S'ih'
p2314
(lp2315
F0
asS'gk'
p2316
(lp2317
F0.001520682934353081
asS'f'
(lp2318
F0
assS'Kv31'
p2319
(dp2320
S'p'
(lp2321
F0
asS'ik'
p2322
(lp2323
F0
asS'gk'
p2324
(lp2325
F0.0021488469966267467
assS'sKCa'
p2326
(dp2327
S'isKCa'
p2328
(lp2329
F0
asS'gk'
p2330
(lp2331
F5.9343727607502512e-05
asS'w'
(lp2332
F0
assS'KDR'
p2333
(dp2334
S'ik'
p2335
(lp2336
F0
asS'gk'
p2337
(lp2338
F0.00041555296502410871
asS'n'
(lp2339
F0
asssg164
g165
((ltRp2340
sg167
(dp2341
sg174
F150.22399999999996
sg175
(dp2342
g177
(lp2343
F1.4604576337573096
asg179
F0
sg180
I14
sg181
(lp2344
sS'L'
F49.999999999154618
sg183
F1
ssg184
S'__nrnsec_0x55ea164b4be0'
p2345
sg186
g165
((ltRp2346
sa(dp2347
g39
(dp2348
S'na'
p2349
(dp2350
S'ena'
p2351
(lp2352
F50
asS'dina_dv_'
p2353
(lp2354
F0
asS'nai'
p2355
(lp2356
F10
asS'nao'
p2357
(lp2358
F140
asS'ina'
p2359
(lp2360
F0
asg53
F53
ssS'k'
(dp2361
S'ek'
p2362
(lp2363
F-77
asS'ki'
p2364
(lp2365
F54.399999999999999
asS'ko'
p2366
(lp2367
F2.5
asS'ik'
p2368
(lp2369
F0
asS'dik_dv_'
p2370
(lp2371
F0
asg53
F53
ssS'ca'
p2372
(dp2373
S'eca'
p2374
(lp2375
F132.45793416370091
asS'dica_dv_'
p2376
(lp2377
F0
asS'ica'
p2378
(lp2379
F0
asS'cai'
p2380
(lp2381
F5.0000000000000002e-05
asS'cao'
p2382
(lp2383
F2
asg53
F247
sssg77
S'zipA5'
p2384
sg79
(lp2385
F2.3581322769154172
asg81
I1
sg82
(dp2386
S'Cacum'
p2387
(dp2388
sS'HVA'
p2389
(dp2390
S'gcaL'
p2391
(lp2392
F0.015261471760436129
asS'gcaN'
p2393
(lp2394
F0
asS'h'
(lp2395
F0
asS'q'
(lp2396
F0
asS'iNCa'
p2397
(lp2398
F0
asS'u'
(lp2399
F0
asS'iLCa'
p2400
(lp2401
F0
asS'o_L'
p2402
(lp2403
F0
asS'o_N'
p2404
(lp2405
F0
assS'Na'
p2406
(dp2407
S'h'
(lp2408
F0
asS'gna'
p2409
(lp2410
F2.358132276915417e-07
asS'm'
(lp2411
F0
asS'ina'
p2412
(lp2413
F0
asS'o'
(lp2414
F0
assS'STh'
p2415
(dp2416
S'epas'
p2417
(lp2418
F-58.447699999999998
asS'gpas'
p2419
(lp2420
F0.00018490398159167018
asS'ipas'
p2421
(lp2422
F0
assS'NaL'
p2423
(dp2424
S'inaL'
p2425
(lp2426
F0
asS'gna'
p2427
(lp2428
F1.9100871443014883e-05
assS'CaT'
p2429
(dp2430
S'd'
(lp2431
F0
asS'iCaT'
p2432
(lp2433
F0
asS'o'
(lp2434
F0
asS's'
(lp2435
F0
asS'r'
(lp2436
F0
asS'gcaT'
p2437
(lp2438
F0.0098011115624596287
assS'Ih'
p2439
(dp2440
S'ih'
p2441
(lp2442
F0
asS'gk'
p2443
(lp2444
F0.0031534267383081468
asS'f'
(lp2445
F0
assS'Kv31'
p2446
(dp2447
S'p'
(lp2448
F0
asS'ik'
p2449
(lp2450
F0
asS'gk'
p2451
(lp2452
F0.0021223190492238755
assS'sKCa'
p2453
(dp2454
S'isKCa'
p2455
(lp2456
F0
asS'gk'
p2457
(lp2458
F0.00023581322769154173
asS'w'
(lp2459
F0
assS'KDR'
p2460
(dp2461
S'ik'
p2462
(lp2463
F0
asS'gk'
p2464
(lp2465
F0.00047162645538308346
asS'n'
(lp2466
F0
asssg164
g165
((ltRp2467
sg167
(dp2468
sg174
F150.22399999999996
sg175
(dp2469
g177
(lp2470
F1.4604576337573096
asg179
F0
sg180
I15
sg181
(lp2471
sS'L'
F44.968683411063409
sg183
F1
ssg184
S'__nrnsec_0x55ea164b4a00'
p2472
sg186
g165
((ltRp2473
sa(dp2474
g39
(dp2475
S'na'
p2476
(dp2477
S'ena'
p2478
(lp2479
F50
asS'dina_dv_'
p2480
(lp2481
F0
asS'nai'
p2482
(lp2483
F10
asS'nao'
p2484
(lp2485
F140
asS'ina'
p2486
(lp2487
F0
asg53
F53
ssS'k'
(dp2488
S'ek'
p2489
(lp2490
F-77
asS'ki'
p2491
(lp2492
F54.399999999999999
asS'ko'
p2493
(lp2494
F2.5
asS'ik'
p2495
(lp2496
F0
asS'dik_dv_'
p2497
(lp2498
F0
asg53
F53
ssS'ca'
p2499
(dp2500
S'eca'
p2501
(lp2502
F132.45793416370091
asS'dica_dv_'
p2503
(lp2504
F0
asS'ica'
p2505
(lp2506
F0
asS'cai'
p2507
(lp2508
F5.0000000000000002e-05
asS'cao'
p2509
(lp2510
F2
asg53
F247
sssg77
S'zipC4'
p2511
sg79
(lp2512
F2.3876077740297181
asg81
I1
sg82
(dp2513
S'Cacum'
p2514
(dp2515
sS'HVA'
p2516
(dp2517
S'gcaL'
p2518
(lp2519
F0.009569370365130947
asS'gcaN'
p2520
(lp2521
F0
asS'h'
(lp2522
F0
asS'q'
(lp2523
F0
asS'iNCa'
p2524
(lp2525
F0
asS'u'
(lp2526
F0
asS'iLCa'
p2527
(lp2528
F0
asS'o_L'
p2529
(lp2530
F0
asS'o_N'
p2531
(lp2532
F0
assS'Na'
p2533
(dp2534
S'h'
(lp2535
F0
asS'gna'
p2536
(lp2537
F2.3876077740297181e-07
asS'm'
(lp2538
F0
asS'ina'
p2539
(lp2540
F0
asS'o'
(lp2541
F0
assS'STh'
p2542
(dp2543
S'epas'
p2544
(lp2545
F-58.447699999999998
asS'gpas'
p2546
(lp2547
F0.00018721519069099909
asS'ipas'
p2548
(lp2549
F0
assS'NaL'
p2550
(dp2551
S'inaL'
p2552
(lp2553
F0
asS'gna'
p2554
(lp2555
F1.9339622969640723e-05
assS'CaT'
p2556
(dp2557
S'd'
(lp2558
F0
asS'iCaT'
p2559
(lp2560
F0
asS'o'
(lp2561
F0
asS's'
(lp2562
F0
asS'r'
(lp2563
F0
asS'gcaT'
p2564
(lp2565
F0.0090917019385495131
assS'Ih'
p2566
(dp2567
S'ih'
p2568
(lp2569
F0
asS'gk'
p2570
(lp2571
F0.0025311963281610017
asS'f'
(lp2572
F0
assS'Kv31'
p2573
(dp2574
S'p'
(lp2575
F0
asS'ik'
p2576
(lp2577
F0
asS'gk'
p2578
(lp2579
F0.0021488469966267462
assS'sKCa'
p2580
(dp2581
S'isKCa'
p2582
(lp2583
F0
asS'gk'
p2584
(lp2585
F0.00023876077740297183
asS'w'
(lp2586
F0
assS'KDR'
p2587
(dp2588
S'ik'
p2589
(lp2590
F0
asS'gk'
p2591
(lp2592
F0.00047752155480594366
asS'n'
(lp2593
F0
asssg164
g165
((ltRp2594
sg167
(dp2595
sg174
F150.22399999999996
sg175
(dp2596
g177
(lp2597
F1.4604576337573096
asg179
F0
sg180
I16
sg181
(lp2598
sS'L'
F49.999999999154625
sg183
F1
ssg184
S'__nrnsec_0x55ea164b4ee0'
p2599
sg186
g165
((ltRp2600
sa(dp2601
g39
(dp2602
S'na'
p2603
(dp2604
S'ena'
p2605
(lp2606
F50
asS'dina_dv_'
p2607
(lp2608
F0
asS'nai'
p2609
(lp2610
F10
asS'nao'
p2611
(lp2612
F140
asS'ina'
p2613
(lp2614
F0
asg53
F53
ssS'k'
(dp2615
S'ek'
p2616
(lp2617
F-77
asS'ki'
p2618
(lp2619
F54.399999999999999
asS'ko'
p2620
(lp2621
F2.5
asS'ik'
p2622
(lp2623
F0
asS'dik_dv_'
p2624
(lp2625
F0
asg53
F53
ssS'ca'
p2626
(dp2627
S'eca'
p2628
(lp2629
F132.45793416370091
asS'dica_dv_'
p2630
(lp2631
F0
asS'ica'
p2632
(lp2633
F0
asS'cai'
p2634
(lp2635
F5.0000000000000002e-05
asS'cao'
p2636
(lp2637
F2
asg53
F247
sssg77
S'zipB4'
p2638
sg79
(lp2639
F2.3876077740297181
asg81
I1
sg82
(dp2640
S'Cacum'
p2641
(dp2642
sS'HVA'
p2643
(dp2644
S'gcaL'
p2645
(lp2646
F0.009569370365130947
asS'gcaN'
p2647
(lp2648
F0
asS'h'
(lp2649
F0
asS'q'
(lp2650
F0
asS'iNCa'
p2651
(lp2652
F0
asS'u'
(lp2653
F0
asS'iLCa'
p2654
(lp2655
F0
asS'o_L'
p2656
(lp2657
F0
asS'o_N'
p2658
(lp2659
F0
assS'Na'
p2660
(dp2661
S'h'
(lp2662
F0
asS'gna'
p2663
(lp2664
F2.3876077740297181e-07
asS'm'
(lp2665
F0
asS'ina'
p2666
(lp2667
F0
asS'o'
(lp2668
F0
assS'STh'
p2669
(dp2670
S'epas'
p2671
(lp2672
F-58.447699999999998
asS'gpas'
p2673
(lp2674
F0.00018721519069099909
asS'ipas'
p2675
(lp2676
F0
assS'NaL'
p2677
(dp2678
S'inaL'
p2679
(lp2680
F0
asS'gna'
p2681
(lp2682
F1.9339622969640723e-05
assS'CaT'
p2683
(dp2684
S'd'
(lp2685
F0
asS'iCaT'
p2686
(lp2687
F0
asS'o'
(lp2688
F0
asS's'
(lp2689
F0
asS'r'
(lp2690
F0
asS'gcaT'
p2691
(lp2692
F0.0090917019385495131
assS'Ih'
p2693
(dp2694
S'ih'
p2695
(lp2696
F0
asS'gk'
p2697
(lp2698
F0.0025311963281610017
asS'f'
(lp2699
F0
assS'Kv31'
p2700
(dp2701
S'p'
(lp2702
F0
asS'ik'
p2703
(lp2704
F0
asS'gk'
p2705
(lp2706
F0.0021488469966267462
assS'sKCa'
p2707
(dp2708
S'isKCa'
p2709
(lp2710
F0
asS'gk'
p2711
(lp2712
F0.00023876077740297183
asS'w'
(lp2713
F0
assS'KDR'
p2714
(dp2715
S'ik'
p2716
(lp2717
F0
asS'gk'
p2718
(lp2719
F0.00047752155480594366
asS'n'
(lp2720
F0
asssg164
g165
((ltRp2721
sg167
(dp2722
sg174
F150.22399999999996
sg175
(dp2723
g177
(lp2724
F1.4604576337573096
asg179
F0
sg180
I17
sg181
(lp2725
sS'L'
F49.999999999154625
sg183
F1
ssg184
S'__nrnsec_0x55ea164b4c40'
p2726
sg186
g165
((ltRp2727
sa(dp2728
g39
(dp2729
S'na'
p2730
(dp2731
S'ena'
p2732
(lp2733
F50
asS'dina_dv_'
p2734
(lp2735
F0
asS'nai'
p2736
(lp2737
F10
asS'nao'
p2738
(lp2739
F140
asS'ina'
p2740
(lp2741
F0
asg53
F53
ssS'k'
(dp2742
S'ek'
p2743
(lp2744
F-77
asS'ki'
p2745
(lp2746
F54.399999999999999
asS'ko'
p2747
(lp2748
F2.5
asS'ik'
p2749
(lp2750
F0
asS'dik_dv_'
p2751
(lp2752
F0
asg53
F53
ssS'ca'
p2753
(dp2754
S'eca'
p2755
(lp2756
F132.45793416370091
asS'dica_dv_'
p2757
(lp2758
F0
asS'ica'
p2759
(lp2760
F0
asS'cai'
p2761
(lp2762
F5.0000000000000002e-05
asS'cao'
p2763
(lp2764
F2
asg53
F247
sssg77
S'zipA6'
p2765
sg79
(lp2766
F1.4142135623730947
asg81
I1
sg82
(dp2767
S'Cacum'
p2768
(dp2769
sS'HVA'
p2770
(dp2771
S'gcaL'
p2772
(lp2773
F0.013051403094601399
asS'gcaN'
p2774
(lp2775
F0
asS'h'
(lp2776
F0
asS'q'
(lp2777
F0
asS'iNCa'
p2778
(lp2779
F0
asS'u'
(lp2780
F0
asS'iLCa'
p2781
(lp2782
F0
asS'o_L'
p2783
(lp2784
F0
asS'o_N'
p2785
(lp2786
F0
assS'Na'
p2787
(dp2788
S'h'
(lp2789
F0
asS'gna'
p2790
(lp2791
F1.4142135623730946e-07
asS'm'
(lp2792
F0
asS'ina'
p2793
(lp2794
F0
asS'o'
(lp2795
F0
assS'STh'
p2796
(dp2797
S'epas'
p2798
(lp2799
F-58.447699999999998
asS'gpas'
p2800
(lp2801
F0.00011089018248194923
asS'ipas'
p2802
(lp2803
F0
assS'NaL'
p2804
(dp2805
S'inaL'
p2806
(lp2807
F0
asS'gna'
p2808
(lp2809
F1.1455129855222068e-05
assS'CaT'
p2810
(dp2811
S'd'
(lp2812
F0
asS'iCaT'
p2813
(lp2814
F0
asS'o'
(lp2815
F0
asS's'
(lp2816
F0
asS'r'
(lp2817
F0
asS'gcaT'
p2818
(lp2819
F0.006457429168423361
assS'Ih'
p2820
(dp2821
S'ih'
p2822
(lp2823
F0
asS'gk'
p2824
(lp2825
F0.0023562098375413858
asS'f'
(lp2826
F0
assS'Kv31'
p2827
(dp2828
S'p'
(lp2829
F0
asS'ik'
p2830
(lp2831
F0
asS'gk'
p2832
(lp2833
F0.0012727922061357851
assS'sKCa'
p2834
(dp2835
S'isKCa'
p2836
(lp2837
F0
asS'gk'
p2838
(lp2839
F0.00025886610322818149
asS'w'
(lp2840
F0
assS'KDR'
p2841
(dp2842
S'ik'
p2843
(lp2844
F0
asS'gk'
p2845
(lp2846
F0.00028284271247461902
asS'n'
(lp2847
F0
asssg164
g165
((ltRp2848
sg167
(dp2849
sg174
F150.22399999999999
sg175
(dp2850
g177
(lp2851
F1.0882373362460966
asg179
F0
sg180
I18
sg181
(lp2852
sS'L'
F28.999999999133014
sg183
F1
ssg184
S'__nrnsec_0x55ea164b4a60'
p2853
sg186
g165
((ltRp2854
sa(dp2855
g39
(dp2856
S'na'
p2857
(dp2858
S'ena'
p2859
(lp2860
F50
asS'dina_dv_'
p2861
(lp2862
F0
asS'nai'
p2863
(lp2864
F10
asS'nao'
p2865
(lp2866
F140
asS'ina'
p2867
(lp2868
F0
asg53
F53
ssS'k'
(dp2869
S'ek'
p2870
(lp2871
F-77
asS'ki'
p2872
(lp2873
F54.399999999999999
asS'ko'
p2874
(lp2875
F2.5
asS'ik'
p2876
(lp2877
F0
asS'dik_dv_'
p2878
(lp2879
F0
asg53
F53
ssS'ca'
p2880
(dp2881
S'eca'
p2882
(lp2883
F132.45793416370091
asS'dica_dv_'
p2884
(lp2885
F0
asS'ica'
p2886
(lp2887
F0
asS'cai'
p2888
(lp2889
F5.0000000000000002e-05
asS'cao'
p2890
(lp2891
F2
asg53
F247
sssg77
S'zipC5'
p2892
sg79
(lp2893
F2.3581322769154172
asg81
I1
sg82
(dp2894
S'Cacum'
p2895
(dp2896
sS'HVA'
p2897
(dp2898
S'gcaL'
p2899
(lp2900
F0.016838011166515336
asS'gcaN'
p2901
(lp2902
F0
asS'h'
(lp2903
F0
asS'q'
(lp2904
F0
asS'iNCa'
p2905
(lp2906
F0
asS'u'
(lp2907
F0
asS'iLCa'
p2908
(lp2909
F0
asS'o_L'
p2910
(lp2911
F0
asS'o_N'
p2912
(lp2913
F0
assS'Na'
p2914
(dp2915
S'h'
(lp2916
F0
asS'gna'
p2917
(lp2918
F2.358132276915417e-07
asS'm'
(lp2919
F0
asS'ina'
p2920
(lp2921
F0
asS'o'
(lp2922
F0
assS'STh'
p2923
(dp2924
S'epas'
p2925
(lp2926
F-58.447699999999998
asS'gpas'
p2927
(lp2928
F0.00018490398159167018
asS'ipas'
p2929
(lp2930
F0
assS'NaL'
p2931
(dp2932
S'inaL'
p2933
(lp2934
F0
asS'gna'
p2935
(lp2936
F1.9100871443014883e-05
assS'CaT'
p2937
(dp2938
S'd'
(lp2939
F0
asS'iCaT'
p2940
(lp2941
F0
asS'o'
(lp2942
F0
asS's'
(lp2943
F0
asS'r'
(lp2944
F0
asS'gcaT'
p2945
(lp2946
F0.010036924790151168
assS'Ih'
p2947
(dp2948
S'ih'
p2949
(lp2950
F0
asS'gk'
p2951
(lp2952
F0.0033892399659996887
asS'f'
(lp2953
F0
assS'Kv31'
p2954
(dp2955
S'p'
(lp2956
F0
asS'ik'
p2957
(lp2958
F0
asS'gk'
p2959
(lp2960
F0.0021223190492238755
assS'sKCa'
p2961
(dp2962
S'isKCa'
p2963
(lp2964
F0
asS'gk'
p2965
(lp2966
F0.00028072767647985226
asS'w'
(lp2967
F0
assS'KDR'
p2968
(dp2969
S'ik'
p2970
(lp2971
F0
asS'gk'
p2972
(lp2973
F0.00047162645538308346
asS'n'
(lp2974
F0
asssg164
g165
((ltRp2975
sg167
(dp2976
sg174
F150.22399999999996
sg175
(dp2977
g177
(lp2978
F1.4604576337573096
asg179
F0
sg180
I19
sg181
(lp2979
sS'L'
F44.968683411063409
sg183
F1
ssg184
S'__nrnsec_0x55ea164b4f40'
p2980
sg186
g165
((ltRp2981
sa(dp2982
g39
(dp2983
S'na'
p2984
(dp2985
S'ena'
p2986
(lp2987
F50
asS'dina_dv_'
p2988
(lp2989
F0
asS'nai'
p2990
(lp2991
F10
asS'nao'
p2992
(lp2993
F140
asS'ina'
p2994
(lp2995
F0
asg53
F53
ssS'k'
(dp2996
S'ek'
p2997
(lp2998
F-77
asS'ki'
p2999
(lp3000
F54.399999999999999
asS'ko'
p3001
(lp3002
F2.5
asS'ik'
p3003
(lp3004
F0
asS'dik_dv_'
p3005
(lp3006
F0
asg53
F53
ssS'ca'
p3007
(dp3008
S'eca'
p3009
(lp3010
F132.45793416370091
asS'dica_dv_'
p3011
(lp3012
F0
asS'ica'
p3013
(lp3014
F0
asS'cai'
p3015
(lp3016
F5.0000000000000002e-05
asS'cao'
p3017
(lp3018
F2
asg53
F247
sssg77
S'zipB5'
p3019
sg79
(lp3020
F2.3581322769154172
asg81
I1
sg82
(dp3021
S'Cacum'
p3022
(dp3023
sS'HVA'
p3024
(dp3025
S'gcaL'
p3026
(lp3027
F0.016838011166515336
asS'gcaN'
p3028
(lp3029
F0
asS'h'
(lp3030
F0
asS'q'
(lp3031
F0
asS'iNCa'
p3032
(lp3033
F0
asS'u'
(lp3034
F0
asS'iLCa'
p3035
(lp3036
F0
asS'o_L'
p3037
(lp3038
F0
asS'o_N'
p3039
(lp3040
F0
assS'Na'
p3041
(dp3042
S'h'
(lp3043
F0
asS'gna'
p3044
(lp3045
F2.358132276915417e-07
asS'm'
(lp3046
F0
asS'ina'
p3047
(lp3048
F0
asS'o'
(lp3049
F0
assS'STh'
p3050
(dp3051
S'epas'
p3052
(lp3053
F-58.447699999999998
asS'gpas'
p3054
(lp3055
F0.00018490398159167018
asS'ipas'
p3056
(lp3057
F0
assS'NaL'
p3058
(dp3059
S'inaL'
p3060
(lp3061
F0
asS'gna'
p3062
(lp3063
F1.9100871443014883e-05
assS'CaT'
p3064
(dp3065
S'd'
(lp3066
F0
asS'iCaT'
p3067
(lp3068
F0
asS'o'
(lp3069
F0
asS's'
(lp3070
F0
asS'r'
(lp3071
F0
asS'gcaT'
p3072
(lp3073
F0.010036924790151168
assS'Ih'
p3074
(dp3075
S'ih'
p3076
(lp3077
F0
asS'gk'
p3078
(lp3079
F0.0033892399659996887
asS'f'
(lp3080
F0
assS'Kv31'
p3081
(dp3082
S'p'
(lp3083
F0
asS'ik'
p3084
(lp3085
F0
asS'gk'
p3086
(lp3087
F0.0021223190492238755
assS'sKCa'
p3088
(dp3089
S'isKCa'
p3090
(lp3091
F0
asS'gk'
p3092
(lp3093
F0.00028072767647985226
asS'w'
(lp3094
F0
assS'KDR'
p3095
(dp3096
S'ik'
p3097
(lp3098
F0
asS'gk'
p3099
(lp3100
F0.00047162645538308346
asS'n'
(lp3101
F0
asssg164
g165
((ltRp3102
sg167
(dp3103
sg174
F150.22399999999996
sg175
(dp3104
g177
(lp3105
F1.4604576337573096
asg179
F0
sg180
I20
sg181
(lp3106
sS'L'
F44.968683411063409
sg183
F1
ssg184
S'__nrnsec_0x55ea164b4ca0'
p3107
sg186
g165
((ltRp3108
sa(dp3109
g39
(dp3110
S'na'
p3111
(dp3112
S'ena'
p3113
(lp3114
F50
asS'dina_dv_'
p3115
(lp3116
F0
asS'nai'
p3117
(lp3118
F10
asS'nao'
p3119
(lp3120
F140
asS'ina'
p3121
(lp3122
F0
asg53
F53
ssS'k'
(dp3123
S'ek'
p3124
(lp3125
F-77
asS'ki'
p3126
(lp3127
F54.399999999999999
asS'ko'
p3128
(lp3129
F2.5
asS'ik'
p3130
(lp3131
F0
asS'dik_dv_'
p3132
(lp3133
F0
asg53
F53
ssS'ca'
p3134
(dp3135
S'eca'
p3136
(lp3137
F132.45793416370091
asS'dica_dv_'
p3138
(lp3139
F0
asS'ica'
p3140
(lp3141
F0
asS'cai'
p3142
(lp3143
F5.0000000000000002e-05
asS'cao'
p3144
(lp3145
F2
asg53
F247
sssg77
S'zipC6'
p3146
sg79
(lp3147
F1.4142135623730947
asg81
I1
sg82
(dp3148
S'Cacum'
p3149
(dp3150
sS'HVA'
p3151
(dp3152
S'gcaL'
p3153
(lp3154
F0.014041352588262567
asS'gcaN'
p3155
(lp3156
F0
asS'h'
(lp3157
F0
asS'q'
(lp3158
F0
asS'iNCa'
p3159
(lp3160
F0
asS'u'
(lp3161
F0
asS'iLCa'
p3162
(lp3163
F0
asS'o_L'
p3164
(lp3165
F0
asS'o_N'
p3166
(lp3167
F0
assS'Na'
p3168
(dp3169
S'h'
(lp3170
F0
asS'gna'
p3171
(lp3172
F1.4142135623730946e-07
asS'm'
(lp3173
F0
asS'ina'
p3174
(lp3175
F0
asS'o'
(lp3176
F0
assS'STh'
p3177
(dp3178
S'epas'
p3179
(lp3180
F-58.447699999999998
asS'gpas'
p3181
(lp3182
F0.00011089018248194923
asS'ipas'
p3183
(lp3184
F0
assS'NaL'
p3185
(dp3186
S'inaL'
p3187
(lp3188
F0
asS'gna'
p3189
(lp3190
F1.1455129855222068e-05
assS'CaT'
p3191
(dp3192
S'd'
(lp3193
F0
asS'iCaT'
p3194
(lp3195
F0
asS'o'
(lp3196
F0
asS's'
(lp3197
F0
asS'r'
(lp3198
F0
asS'gcaT'
p3199
(lp3200
F0.0065988505246606707
assS'Ih'
p3201
(dp3202
S'ih'
p3203
(lp3204
F0
asS'gk'
p3205
(lp3206
F0.0024976311937786955
asS'f'
(lp3207
F0
assS'Kv31'
p3208
(dp3209
S'p'
(lp3210
F0
asS'ik'
p3211
(lp3212
F0
asS'gk'
p3213
(lp3214
F0.0012727922061357851
assS'sKCa'
p3215
(dp3216
S'isKCa'
p3217
(lp3218
F0
asS'gk'
p3219
(lp3220
F0.00028284271247461902
asS'w'
(lp3221
F0
assS'KDR'
p3222
(dp3223
S'ik'
p3224
(lp3225
F0
asS'gk'
p3226
(lp3227
F0.00028284271247461902
asS'n'
(lp3228
F0
asssg164
g165
((ltRp3229
sg167
(dp3230
sg174
F150.22399999999999
sg175
(dp3231
g177
(lp3232
F1.0882373362460966
asg179
F0
sg180
I22
sg181
(lp3233
sS'L'
F28.999999999133014
sg183
F1
ssg184
S'__nrnsec_0x55ea164b4fa0'
p3234
sg186
g165
((ltRp3235
sa(dp3236
g39
(dp3237
S'na'
p3238
(dp3239
S'ena'
p3240
(lp3241
F50
asS'dina_dv_'
p3242
(lp3243
F0
asS'nai'
p3244
(lp3245
F10
asS'nao'
p3246
(lp3247
F140
asS'ina'
p3248
(lp3249
F0
asg53
F53
ssS'k'
(dp3250
S'ek'
p3251
(lp3252
F-77
asS'ki'
p3253
(lp3254
F54.399999999999999
asS'ko'
p3255
(lp3256
F2.5
asS'ik'
p3257
(lp3258
F0
asS'dik_dv_'
p3259
(lp3260
F0
asg53
F53
ssS'ca'
p3261
(dp3262
S'eca'
p3263
(lp3264
F132.45793416370091
asS'dica_dv_'
p3265
(lp3266
F0
asS'ica'
p3267
(lp3268
F0
asS'cai'
p3269
(lp3270
F5.0000000000000002e-05
asS'cao'
p3271
(lp3272
F2
asg53
F247
sssg77
S'zipB6'
p3273
sg79
(lp3274
F1.4142135623730947
asg81
I1
sg82
(dp3275
S'Cacum'
p3276
(dp3277
sS'HVA'
p3278
(dp3279
S'gcaL'
p3280
(lp3281
F0.014041352588262567
asS'gcaN'
p3282
(lp3283
F0
asS'h'
(lp3284
F0
asS'q'
(lp3285
F0
asS'iNCa'
p3286
(lp3287
F0
asS'u'
(lp3288
F0
asS'iLCa'
p3289
(lp3290
F0
asS'o_L'
p3291
(lp3292
F0
asS'o_N'
p3293
(lp3294
F0
assS'Na'
p3295
(dp3296
S'h'
(lp3297
F0
asS'gna'
p3298
(lp3299
F1.4142135623730946e-07
asS'm'
(lp3300
F0
asS'ina'
p3301
(lp3302
F0
asS'o'
(lp3303
F0
assS'STh'
p3304
(dp3305
S'epas'
p3306
(lp3307
F-58.447699999999998
asS'gpas'
p3308
(lp3309
F0.00011089018248194923
asS'ipas'
p3310
(lp3311
F0
assS'NaL'
p3312
(dp3313
S'inaL'
p3314
(lp3315
F0
asS'gna'
p3316
(lp3317
F1.1455129855222068e-05
assS'CaT'
p3318
(dp3319
S'd'
(lp3320
F0
asS'iCaT'
p3321
(lp3322
F0
asS'o'
(lp3323
F0
asS's'
(lp3324
F0
asS'r'
(lp3325
F0
asS'gcaT'
p3326
(lp3327
F0.0065988505246606707
assS'Ih'
p3328
(dp3329
S'ih'
p3330
(lp3331
F0
asS'gk'
p3332
(lp3333
F0.0024976311937786955
asS'f'
(lp3334
F0
assS'Kv31'
p3335
(dp3336
S'p'
(lp3337
F0
asS'ik'
p3338
(lp3339
F0
asS'gk'
p3340
(lp3341
F0.0012727922061357851
assS'sKCa'
p3342
(dp3343
S'isKCa'
p3344
(lp3345
F0
asS'gk'
p3346
(lp3347
F0.00028284271247461902
asS'w'
(lp3348
F0
assS'KDR'
p3349
(dp3350
S'ik'
p3351
(lp3352
F0
asS'gk'
p3353
(lp3354
F0.00028284271247461902
asS'n'
(lp3355
F0
asssg164
g165
((ltRp3356
sg167
(dp3357
sg174
F150.22399999999999
sg175
(dp3358
g177
(lp3359
F1.0882373362460966
asg179
F0
sg180
I23
sg181
(lp3360
sS'L'
F28.999999999133014
sg183
F1
ssg184
S'__nrnsec_0x55ea164b4d00'
p3361
sg186
g165
((ltRp3362
sasS'description'
p3363
S"Cell reduced using algorithm ReductionMethod.BushSejnowski implemented in class <class 'bgcellmodels.cersei.collapse.tapered_folding.TaperedFolder'>, from 189 to 30 compartments."
p3364
sS'metadata'
p3365
Ns.